
ctarget:     file format elf64-x86-64


Disassembly of section .init:

0000000000400c48 <_init>:
  400c48:	48 83 ec 08          	sub    $0x8,%rsp
  400c4c:	48 8b 05 a5 43 20 00 	mov    0x2043a5(%rip),%rax        # 604ff8 <_DYNAMIC+0x1d0>
  400c53:	48 85 c0             	test   %rax,%rax
  400c56:	74 05                	je     400c5d <_init+0x15>
  400c58:	e8 43 02 00 00       	callq  400ea0 <socket@plt+0x10>
  400c5d:	48 83 c4 08          	add    $0x8,%rsp
  400c61:	c3                   	retq   

Disassembly of section .plt:

0000000000400c70 <strcasecmp@plt-0x10>:
  400c70:	ff 35 92 43 20 00    	pushq  0x204392(%rip)        # 605008 <_GLOBAL_OFFSET_TABLE_+0x8>
  400c76:	ff 25 94 43 20 00    	jmpq   *0x204394(%rip)        # 605010 <_GLOBAL_OFFSET_TABLE_+0x10>
  400c7c:	0f 1f 40 00          	nopl   0x0(%rax)

0000000000400c80 <strcasecmp@plt>:
  400c80:	ff 25 92 43 20 00    	jmpq   *0x204392(%rip)        # 605018 <_GLOBAL_OFFSET_TABLE_+0x18>
  400c86:	68 00 00 00 00       	pushq  $0x0
  400c8b:	e9 e0 ff ff ff       	jmpq   400c70 <_init+0x28>

0000000000400c90 <__errno_location@plt>:
  400c90:	ff 25 8a 43 20 00    	jmpq   *0x20438a(%rip)        # 605020 <_GLOBAL_OFFSET_TABLE_+0x20>
  400c96:	68 01 00 00 00       	pushq  $0x1
  400c9b:	e9 d0 ff ff ff       	jmpq   400c70 <_init+0x28>

0000000000400ca0 <srandom@plt>:
  400ca0:	ff 25 82 43 20 00    	jmpq   *0x204382(%rip)        # 605028 <_GLOBAL_OFFSET_TABLE_+0x28>
  400ca6:	68 02 00 00 00       	pushq  $0x2
  400cab:	e9 c0 ff ff ff       	jmpq   400c70 <_init+0x28>

0000000000400cb0 <strncmp@plt>:
  400cb0:	ff 25 7a 43 20 00    	jmpq   *0x20437a(%rip)        # 605030 <_GLOBAL_OFFSET_TABLE_+0x30>
  400cb6:	68 03 00 00 00       	pushq  $0x3
  400cbb:	e9 b0 ff ff ff       	jmpq   400c70 <_init+0x28>

0000000000400cc0 <strcpy@plt>:
  400cc0:	ff 25 72 43 20 00    	jmpq   *0x204372(%rip)        # 605038 <_GLOBAL_OFFSET_TABLE_+0x38>
  400cc6:	68 04 00 00 00       	pushq  $0x4
  400ccb:	e9 a0 ff ff ff       	jmpq   400c70 <_init+0x28>

0000000000400cd0 <puts@plt>:
  400cd0:	ff 25 6a 43 20 00    	jmpq   *0x20436a(%rip)        # 605040 <_GLOBAL_OFFSET_TABLE_+0x40>
  400cd6:	68 05 00 00 00       	pushq  $0x5
  400cdb:	e9 90 ff ff ff       	jmpq   400c70 <_init+0x28>

0000000000400ce0 <write@plt>:
  400ce0:	ff 25 62 43 20 00    	jmpq   *0x204362(%rip)        # 605048 <_GLOBAL_OFFSET_TABLE_+0x48>
  400ce6:	68 06 00 00 00       	pushq  $0x6
  400ceb:	e9 80 ff ff ff       	jmpq   400c70 <_init+0x28>

0000000000400cf0 <__stack_chk_fail@plt>:
  400cf0:	ff 25 5a 43 20 00    	jmpq   *0x20435a(%rip)        # 605050 <_GLOBAL_OFFSET_TABLE_+0x50>
  400cf6:	68 07 00 00 00       	pushq  $0x7
  400cfb:	e9 70 ff ff ff       	jmpq   400c70 <_init+0x28>

0000000000400d00 <mmap@plt>:
  400d00:	ff 25 52 43 20 00    	jmpq   *0x204352(%rip)        # 605058 <_GLOBAL_OFFSET_TABLE_+0x58>
  400d06:	68 08 00 00 00       	pushq  $0x8
  400d0b:	e9 60 ff ff ff       	jmpq   400c70 <_init+0x28>

0000000000400d10 <memset@plt>:
  400d10:	ff 25 4a 43 20 00    	jmpq   *0x20434a(%rip)        # 605060 <_GLOBAL_OFFSET_TABLE_+0x60>
  400d16:	68 09 00 00 00       	pushq  $0x9
  400d1b:	e9 50 ff ff ff       	jmpq   400c70 <_init+0x28>

0000000000400d20 <alarm@plt>:
  400d20:	ff 25 42 43 20 00    	jmpq   *0x204342(%rip)        # 605068 <_GLOBAL_OFFSET_TABLE_+0x68>
  400d26:	68 0a 00 00 00       	pushq  $0xa
  400d2b:	e9 40 ff ff ff       	jmpq   400c70 <_init+0x28>

0000000000400d30 <close@plt>:
  400d30:	ff 25 3a 43 20 00    	jmpq   *0x20433a(%rip)        # 605070 <_GLOBAL_OFFSET_TABLE_+0x70>
  400d36:	68 0b 00 00 00       	pushq  $0xb
  400d3b:	e9 30 ff ff ff       	jmpq   400c70 <_init+0x28>

0000000000400d40 <read@plt>:
  400d40:	ff 25 32 43 20 00    	jmpq   *0x204332(%rip)        # 605078 <_GLOBAL_OFFSET_TABLE_+0x78>
  400d46:	68 0c 00 00 00       	pushq  $0xc
  400d4b:	e9 20 ff ff ff       	jmpq   400c70 <_init+0x28>

0000000000400d50 <__libc_start_main@plt>:
  400d50:	ff 25 2a 43 20 00    	jmpq   *0x20432a(%rip)        # 605080 <_GLOBAL_OFFSET_TABLE_+0x80>
  400d56:	68 0d 00 00 00       	pushq  $0xd
  400d5b:	e9 10 ff ff ff       	jmpq   400c70 <_init+0x28>

0000000000400d60 <signal@plt>:
  400d60:	ff 25 22 43 20 00    	jmpq   *0x204322(%rip)        # 605088 <_GLOBAL_OFFSET_TABLE_+0x88>
  400d66:	68 0e 00 00 00       	pushq  $0xe
  400d6b:	e9 00 ff ff ff       	jmpq   400c70 <_init+0x28>

0000000000400d70 <gethostbyname@plt>:
  400d70:	ff 25 1a 43 20 00    	jmpq   *0x20431a(%rip)        # 605090 <_GLOBAL_OFFSET_TABLE_+0x90>
  400d76:	68 0f 00 00 00       	pushq  $0xf
  400d7b:	e9 f0 fe ff ff       	jmpq   400c70 <_init+0x28>

0000000000400d80 <__memmove_chk@plt>:
  400d80:	ff 25 12 43 20 00    	jmpq   *0x204312(%rip)        # 605098 <_GLOBAL_OFFSET_TABLE_+0x98>
  400d86:	68 10 00 00 00       	pushq  $0x10
  400d8b:	e9 e0 fe ff ff       	jmpq   400c70 <_init+0x28>

0000000000400d90 <strtol@plt>:
  400d90:	ff 25 0a 43 20 00    	jmpq   *0x20430a(%rip)        # 6050a0 <_GLOBAL_OFFSET_TABLE_+0xa0>
  400d96:	68 11 00 00 00       	pushq  $0x11
  400d9b:	e9 d0 fe ff ff       	jmpq   400c70 <_init+0x28>

0000000000400da0 <memcpy@plt>:
  400da0:	ff 25 02 43 20 00    	jmpq   *0x204302(%rip)        # 6050a8 <_GLOBAL_OFFSET_TABLE_+0xa8>
  400da6:	68 12 00 00 00       	pushq  $0x12
  400dab:	e9 c0 fe ff ff       	jmpq   400c70 <_init+0x28>

0000000000400db0 <time@plt>:
  400db0:	ff 25 fa 42 20 00    	jmpq   *0x2042fa(%rip)        # 6050b0 <_GLOBAL_OFFSET_TABLE_+0xb0>
  400db6:	68 13 00 00 00       	pushq  $0x13
  400dbb:	e9 b0 fe ff ff       	jmpq   400c70 <_init+0x28>

0000000000400dc0 <random@plt>:
  400dc0:	ff 25 f2 42 20 00    	jmpq   *0x2042f2(%rip)        # 6050b8 <_GLOBAL_OFFSET_TABLE_+0xb8>
  400dc6:	68 14 00 00 00       	pushq  $0x14
  400dcb:	e9 a0 fe ff ff       	jmpq   400c70 <_init+0x28>

0000000000400dd0 <_IO_getc@plt>:
  400dd0:	ff 25 ea 42 20 00    	jmpq   *0x2042ea(%rip)        # 6050c0 <_GLOBAL_OFFSET_TABLE_+0xc0>
  400dd6:	68 15 00 00 00       	pushq  $0x15
  400ddb:	e9 90 fe ff ff       	jmpq   400c70 <_init+0x28>

0000000000400de0 <__isoc99_sscanf@plt>:
  400de0:	ff 25 e2 42 20 00    	jmpq   *0x2042e2(%rip)        # 6050c8 <_GLOBAL_OFFSET_TABLE_+0xc8>
  400de6:	68 16 00 00 00       	pushq  $0x16
  400deb:	e9 80 fe ff ff       	jmpq   400c70 <_init+0x28>

0000000000400df0 <munmap@plt>:
  400df0:	ff 25 da 42 20 00    	jmpq   *0x2042da(%rip)        # 6050d0 <_GLOBAL_OFFSET_TABLE_+0xd0>
  400df6:	68 17 00 00 00       	pushq  $0x17
  400dfb:	e9 70 fe ff ff       	jmpq   400c70 <_init+0x28>

0000000000400e00 <__printf_chk@plt>:
  400e00:	ff 25 d2 42 20 00    	jmpq   *0x2042d2(%rip)        # 6050d8 <_GLOBAL_OFFSET_TABLE_+0xd8>
  400e06:	68 18 00 00 00       	pushq  $0x18
  400e0b:	e9 60 fe ff ff       	jmpq   400c70 <_init+0x28>

0000000000400e10 <fopen@plt>:
  400e10:	ff 25 ca 42 20 00    	jmpq   *0x2042ca(%rip)        # 6050e0 <_GLOBAL_OFFSET_TABLE_+0xe0>
  400e16:	68 19 00 00 00       	pushq  $0x19
  400e1b:	e9 50 fe ff ff       	jmpq   400c70 <_init+0x28>

0000000000400e20 <getopt@plt>:
  400e20:	ff 25 c2 42 20 00    	jmpq   *0x2042c2(%rip)        # 6050e8 <_GLOBAL_OFFSET_TABLE_+0xe8>
  400e26:	68 1a 00 00 00       	pushq  $0x1a
  400e2b:	e9 40 fe ff ff       	jmpq   400c70 <_init+0x28>

0000000000400e30 <strtoul@plt>:
  400e30:	ff 25 ba 42 20 00    	jmpq   *0x2042ba(%rip)        # 6050f0 <_GLOBAL_OFFSET_TABLE_+0xf0>
  400e36:	68 1b 00 00 00       	pushq  $0x1b
  400e3b:	e9 30 fe ff ff       	jmpq   400c70 <_init+0x28>

0000000000400e40 <gethostname@plt>:
  400e40:	ff 25 b2 42 20 00    	jmpq   *0x2042b2(%rip)        # 6050f8 <_GLOBAL_OFFSET_TABLE_+0xf8>
  400e46:	68 1c 00 00 00       	pushq  $0x1c
  400e4b:	e9 20 fe ff ff       	jmpq   400c70 <_init+0x28>

0000000000400e50 <exit@plt>:
  400e50:	ff 25 aa 42 20 00    	jmpq   *0x2042aa(%rip)        # 605100 <_GLOBAL_OFFSET_TABLE_+0x100>
  400e56:	68 1d 00 00 00       	pushq  $0x1d
  400e5b:	e9 10 fe ff ff       	jmpq   400c70 <_init+0x28>

0000000000400e60 <connect@plt>:
  400e60:	ff 25 a2 42 20 00    	jmpq   *0x2042a2(%rip)        # 605108 <_GLOBAL_OFFSET_TABLE_+0x108>
  400e66:	68 1e 00 00 00       	pushq  $0x1e
  400e6b:	e9 00 fe ff ff       	jmpq   400c70 <_init+0x28>

0000000000400e70 <__fprintf_chk@plt>:
  400e70:	ff 25 9a 42 20 00    	jmpq   *0x20429a(%rip)        # 605110 <_GLOBAL_OFFSET_TABLE_+0x110>
  400e76:	68 1f 00 00 00       	pushq  $0x1f
  400e7b:	e9 f0 fd ff ff       	jmpq   400c70 <_init+0x28>

0000000000400e80 <__sprintf_chk@plt>:
  400e80:	ff 25 92 42 20 00    	jmpq   *0x204292(%rip)        # 605118 <_GLOBAL_OFFSET_TABLE_+0x118>
  400e86:	68 20 00 00 00       	pushq  $0x20
  400e8b:	e9 e0 fd ff ff       	jmpq   400c70 <_init+0x28>

0000000000400e90 <socket@plt>:
  400e90:	ff 25 8a 42 20 00    	jmpq   *0x20428a(%rip)        # 605120 <_GLOBAL_OFFSET_TABLE_+0x120>
  400e96:	68 21 00 00 00       	pushq  $0x21
  400e9b:	e9 d0 fd ff ff       	jmpq   400c70 <_init+0x28>

Disassembly of section .plt.got:

0000000000400ea0 <.plt.got>:
  400ea0:	ff 25 52 41 20 00    	jmpq   *0x204152(%rip)        # 604ff8 <_DYNAMIC+0x1d0>
  400ea6:	66 90                	xchg   %ax,%ax

Disassembly of section .text:

0000000000400eb0 <_start>:
  400eb0:	31 ed                	xor    %ebp,%ebp
  400eb2:	49 89 d1             	mov    %rdx,%r9
  400eb5:	5e                   	pop    %rsi
  400eb6:	48 89 e2             	mov    %rsp,%rdx
  400eb9:	48 83 e4 f0          	and    $0xfffffffffffffff0,%rsp
  400ebd:	50                   	push   %rax
  400ebe:	54                   	push   %rsp
  400ebf:	49 c7 c0 20 2f 40 00 	mov    $0x402f20,%r8
  400ec6:	48 c7 c1 b0 2e 40 00 	mov    $0x402eb0,%rcx
  400ecd:	48 c7 c7 b5 11 40 00 	mov    $0x4011b5,%rdi
  400ed4:	e8 77 fe ff ff       	callq  400d50 <__libc_start_main@plt>
  400ed9:	f4                   	hlt    
  400eda:	66 0f 1f 44 00 00    	nopw   0x0(%rax,%rax,1)

0000000000400ee0 <deregister_tm_clones>:
  400ee0:	b8 b7 54 60 00       	mov    $0x6054b7,%eax
  400ee5:	55                   	push   %rbp
  400ee6:	48 2d b0 54 60 00    	sub    $0x6054b0,%rax
  400eec:	48 83 f8 0e          	cmp    $0xe,%rax
  400ef0:	48 89 e5             	mov    %rsp,%rbp
  400ef3:	76 1b                	jbe    400f10 <deregister_tm_clones+0x30>
  400ef5:	b8 00 00 00 00       	mov    $0x0,%eax
  400efa:	48 85 c0             	test   %rax,%rax
  400efd:	74 11                	je     400f10 <deregister_tm_clones+0x30>
  400eff:	5d                   	pop    %rbp
  400f00:	bf b0 54 60 00       	mov    $0x6054b0,%edi
  400f05:	ff e0                	jmpq   *%rax
  400f07:	66 0f 1f 84 00 00 00 	nopw   0x0(%rax,%rax,1)
  400f0e:	00 00 
  400f10:	5d                   	pop    %rbp
  400f11:	c3                   	retq   
  400f12:	0f 1f 40 00          	nopl   0x0(%rax)
  400f16:	66 2e 0f 1f 84 00 00 	nopw   %cs:0x0(%rax,%rax,1)
  400f1d:	00 00 00 

0000000000400f20 <register_tm_clones>:
  400f20:	be b0 54 60 00       	mov    $0x6054b0,%esi
  400f25:	55                   	push   %rbp
  400f26:	48 81 ee b0 54 60 00 	sub    $0x6054b0,%rsi
  400f2d:	48 c1 fe 03          	sar    $0x3,%rsi
  400f31:	48 89 e5             	mov    %rsp,%rbp
  400f34:	48 89 f0             	mov    %rsi,%rax
  400f37:	48 c1 e8 3f          	shr    $0x3f,%rax
  400f3b:	48 01 c6             	add    %rax,%rsi
  400f3e:	48 d1 fe             	sar    %rsi
  400f41:	74 15                	je     400f58 <register_tm_clones+0x38>
  400f43:	b8 00 00 00 00       	mov    $0x0,%eax
  400f48:	48 85 c0             	test   %rax,%rax
  400f4b:	74 0b                	je     400f58 <register_tm_clones+0x38>
  400f4d:	5d                   	pop    %rbp
  400f4e:	bf b0 54 60 00       	mov    $0x6054b0,%edi
  400f53:	ff e0                	jmpq   *%rax
  400f55:	0f 1f 00             	nopl   (%rax)
  400f58:	5d                   	pop    %rbp
  400f59:	c3                   	retq   
  400f5a:	66 0f 1f 44 00 00    	nopw   0x0(%rax,%rax,1)

0000000000400f60 <__do_global_dtors_aux>:
  400f60:	80 3d 81 45 20 00 00 	cmpb   $0x0,0x204581(%rip)        # 6054e8 <completed.7585>
  400f67:	75 11                	jne    400f7a <__do_global_dtors_aux+0x1a>
  400f69:	55                   	push   %rbp
  400f6a:	48 89 e5             	mov    %rsp,%rbp
  400f6d:	e8 6e ff ff ff       	callq  400ee0 <deregister_tm_clones>
  400f72:	5d                   	pop    %rbp
  400f73:	c6 05 6e 45 20 00 01 	movb   $0x1,0x20456e(%rip)        # 6054e8 <completed.7585>
  400f7a:	f3 c3                	repz retq 
  400f7c:	0f 1f 40 00          	nopl   0x0(%rax)

0000000000400f80 <frame_dummy>:
  400f80:	bf 20 4e 60 00       	mov    $0x604e20,%edi
  400f85:	48 83 3f 00          	cmpq   $0x0,(%rdi)
  400f89:	75 05                	jne    400f90 <frame_dummy+0x10>
  400f8b:	eb 93                	jmp    400f20 <register_tm_clones>
  400f8d:	0f 1f 00             	nopl   (%rax)
  400f90:	b8 00 00 00 00       	mov    $0x0,%eax
  400f95:	48 85 c0             	test   %rax,%rax
  400f98:	74 f1                	je     400f8b <frame_dummy+0xb>
  400f9a:	55                   	push   %rbp
  400f9b:	48 89 e5             	mov    %rsp,%rbp
  400f9e:	ff d0                	callq  *%rax
  400fa0:	5d                   	pop    %rbp
  400fa1:	e9 7a ff ff ff       	jmpq   400f20 <register_tm_clones>

0000000000400fa6 <usage>:
  400fa6:	48 83 ec 08          	sub    $0x8,%rsp
  400faa:	48 89 fa             	mov    %rdi,%rdx
  400fad:	83 3d 74 45 20 00 00 	cmpl   $0x0,0x204574(%rip)        # 605528 <is_checker>
  400fb4:	74 3e                	je     400ff4 <usage+0x4e>
  400fb6:	be 38 2f 40 00       	mov    $0x402f38,%esi
  400fbb:	bf 01 00 00 00       	mov    $0x1,%edi
  400fc0:	b8 00 00 00 00       	mov    $0x0,%eax
  400fc5:	e8 36 fe ff ff       	callq  400e00 <__printf_chk@plt>
  400fca:	bf 70 2f 40 00       	mov    $0x402f70,%edi
  400fcf:	e8 fc fc ff ff       	callq  400cd0 <puts@plt>
  400fd4:	bf e8 30 40 00       	mov    $0x4030e8,%edi
  400fd9:	e8 f2 fc ff ff       	callq  400cd0 <puts@plt>
  400fde:	bf 98 2f 40 00       	mov    $0x402f98,%edi
  400fe3:	e8 e8 fc ff ff       	callq  400cd0 <puts@plt>
  400fe8:	bf 02 31 40 00       	mov    $0x403102,%edi
  400fed:	e8 de fc ff ff       	callq  400cd0 <puts@plt>
  400ff2:	eb 32                	jmp    401026 <usage+0x80>
  400ff4:	be 1e 31 40 00       	mov    $0x40311e,%esi
  400ff9:	bf 01 00 00 00       	mov    $0x1,%edi
  400ffe:	b8 00 00 00 00       	mov    $0x0,%eax
  401003:	e8 f8 fd ff ff       	callq  400e00 <__printf_chk@plt>
  401008:	bf c0 2f 40 00       	mov    $0x402fc0,%edi
  40100d:	e8 be fc ff ff       	callq  400cd0 <puts@plt>
  401012:	bf e8 2f 40 00       	mov    $0x402fe8,%edi
  401017:	e8 b4 fc ff ff       	callq  400cd0 <puts@plt>
  40101c:	bf 3c 31 40 00       	mov    $0x40313c,%edi
  401021:	e8 aa fc ff ff       	callq  400cd0 <puts@plt>
  401026:	bf 00 00 00 00       	mov    $0x0,%edi
  40102b:	e8 20 fe ff ff       	callq  400e50 <exit@plt>

0000000000401030 <initialize_target>:
  401030:	55                   	push   %rbp
  401031:	53                   	push   %rbx
  401032:	48 81 ec 18 21 00 00 	sub    $0x2118,%rsp
  401039:	89 f5                	mov    %esi,%ebp
  40103b:	64 48 8b 04 25 28 00 	mov    %fs:0x28,%rax
  401042:	00 00 
  401044:	48 89 84 24 08 21 00 	mov    %rax,0x2108(%rsp)
  40104b:	00 
  40104c:	31 c0                	xor    %eax,%eax
  40104e:	89 3d c4 44 20 00    	mov    %edi,0x2044c4(%rip)        # 605518 <check_level>
  401054:	8b 3d 0e 41 20 00    	mov    0x20410e(%rip),%edi        # 605168 <target_id>
  40105a:	e8 24 1e 00 00       	callq  402e83 <gencookie>
  40105f:	89 05 bf 44 20 00    	mov    %eax,0x2044bf(%rip)        # 605524 <cookie>
  401065:	89 c7                	mov    %eax,%edi
  401067:	e8 17 1e 00 00       	callq  402e83 <gencookie>
  40106c:	89 05 ae 44 20 00    	mov    %eax,0x2044ae(%rip)        # 605520 <authkey>
  401072:	8b 05 f0 40 20 00    	mov    0x2040f0(%rip),%eax        # 605168 <target_id>
  401078:	8d 78 01             	lea    0x1(%rax),%edi
  40107b:	e8 20 fc ff ff       	callq  400ca0 <srandom@plt>
  401080:	e8 3b fd ff ff       	callq  400dc0 <random@plt>
  401085:	89 c7                	mov    %eax,%edi
  401087:	e8 03 03 00 00       	callq  40138f <scramble>
  40108c:	89 c3                	mov    %eax,%ebx
  40108e:	85 ed                	test   %ebp,%ebp
  401090:	74 18                	je     4010aa <initialize_target+0x7a>
  401092:	bf 00 00 00 00       	mov    $0x0,%edi
  401097:	e8 14 fd ff ff       	callq  400db0 <time@plt>
  40109c:	89 c7                	mov    %eax,%edi
  40109e:	e8 fd fb ff ff       	callq  400ca0 <srandom@plt>
  4010a3:	e8 18 fd ff ff       	callq  400dc0 <random@plt>
  4010a8:	eb 05                	jmp    4010af <initialize_target+0x7f>
  4010aa:	b8 00 00 00 00       	mov    $0x0,%eax
  4010af:	01 c3                	add    %eax,%ebx
  4010b1:	0f b7 db             	movzwl %bx,%ebx
  4010b4:	8d 04 dd 00 01 00 00 	lea    0x100(,%rbx,8),%eax
  4010bb:	89 c0                	mov    %eax,%eax
  4010bd:	48 89 05 dc 43 20 00 	mov    %rax,0x2043dc(%rip)        # 6054a0 <buf_offset>
  4010c4:	c6 05 7d 50 20 00 63 	movb   $0x63,0x20507d(%rip)        # 606148 <target_prefix>
  4010cb:	83 3d d6 43 20 00 00 	cmpl   $0x0,0x2043d6(%rip)        # 6054a8 <notify>
  4010d2:	0f 84 bb 00 00 00    	je     401193 <initialize_target+0x163>
  4010d8:	83 3d 49 44 20 00 00 	cmpl   $0x0,0x204449(%rip)        # 605528 <is_checker>
  4010df:	0f 85 ae 00 00 00    	jne    401193 <initialize_target+0x163>
  4010e5:	be 00 01 00 00       	mov    $0x100,%esi
  4010ea:	48 89 e7             	mov    %rsp,%rdi
  4010ed:	e8 4e fd ff ff       	callq  400e40 <gethostname@plt>
  4010f2:	85 c0                	test   %eax,%eax
  4010f4:	74 25                	je     40111b <initialize_target+0xeb>
  4010f6:	bf 18 30 40 00       	mov    $0x403018,%edi
  4010fb:	e8 d0 fb ff ff       	callq  400cd0 <puts@plt>
  401100:	bf 08 00 00 00       	mov    $0x8,%edi
  401105:	e8 46 fd ff ff       	callq  400e50 <exit@plt>
  40110a:	48 89 e6             	mov    %rsp,%rsi
  40110d:	e8 6e fb ff ff       	callq  400c80 <strcasecmp@plt>
  401112:	85 c0                	test   %eax,%eax
  401114:	74 21                	je     401137 <initialize_target+0x107>
  401116:	83 c3 01             	add    $0x1,%ebx
  401119:	eb 05                	jmp    401120 <initialize_target+0xf0>
  40111b:	bb 00 00 00 00       	mov    $0x0,%ebx
  401120:	48 63 c3             	movslq %ebx,%rax
  401123:	48 8b 3c c5 80 51 60 	mov    0x605180(,%rax,8),%rdi
  40112a:	00 
  40112b:	48 85 ff             	test   %rdi,%rdi
  40112e:	75 da                	jne    40110a <initialize_target+0xda>
  401130:	b8 00 00 00 00       	mov    $0x0,%eax
  401135:	eb 05                	jmp    40113c <initialize_target+0x10c>
  401137:	b8 01 00 00 00       	mov    $0x1,%eax
  40113c:	85 c0                	test   %eax,%eax
  40113e:	75 1c                	jne    40115c <initialize_target+0x12c>
  401140:	48 89 e2             	mov    %rsp,%rdx
  401143:	be 50 30 40 00       	mov    $0x403050,%esi
  401148:	bf 01 00 00 00       	mov    $0x1,%edi
  40114d:	e8 ae fc ff ff       	callq  400e00 <__printf_chk@plt>
  401152:	bf 08 00 00 00       	mov    $0x8,%edi
  401157:	e8 f4 fc ff ff       	callq  400e50 <exit@plt>
  40115c:	48 8d bc 24 00 01 00 	lea    0x100(%rsp),%rdi
  401163:	00 
  401164:	e8 84 1a 00 00       	callq  402bed <init_driver>
  401169:	85 c0                	test   %eax,%eax
  40116b:	79 26                	jns    401193 <initialize_target+0x163>
  40116d:	48 8d 94 24 00 01 00 	lea    0x100(%rsp),%rdx
  401174:	00 
  401175:	be 90 30 40 00       	mov    $0x403090,%esi
  40117a:	bf 01 00 00 00       	mov    $0x1,%edi
  40117f:	b8 00 00 00 00       	mov    $0x0,%eax
  401184:	e8 77 fc ff ff       	callq  400e00 <__printf_chk@plt>
  401189:	bf 08 00 00 00       	mov    $0x8,%edi
  40118e:	e8 bd fc ff ff       	callq  400e50 <exit@plt>
  401193:	48 8b 84 24 08 21 00 	mov    0x2108(%rsp),%rax
  40119a:	00 
  40119b:	64 48 33 04 25 28 00 	xor    %fs:0x28,%rax
  4011a2:	00 00 
  4011a4:	74 05                	je     4011ab <initialize_target+0x17b>
  4011a6:	e8 45 fb ff ff       	callq  400cf0 <__stack_chk_fail@plt>
  4011ab:	48 81 c4 18 21 00 00 	add    $0x2118,%rsp
  4011b2:	5b                   	pop    %rbx
  4011b3:	5d                   	pop    %rbp
  4011b4:	c3                   	retq   

00000000004011b5 <main>:
  4011b5:	41 56                	push   %r14
  4011b7:	41 55                	push   %r13
  4011b9:	41 54                	push   %r12
  4011bb:	55                   	push   %rbp
  4011bc:	53                   	push   %rbx
  4011bd:	41 89 fc             	mov    %edi,%r12d
  4011c0:	48 89 f3             	mov    %rsi,%rbx
  4011c3:	be 28 1f 40 00       	mov    $0x401f28,%esi
  4011c8:	bf 0b 00 00 00       	mov    $0xb,%edi
  4011cd:	e8 8e fb ff ff       	callq  400d60 <signal@plt>
  4011d2:	be da 1e 40 00       	mov    $0x401eda,%esi
  4011d7:	bf 07 00 00 00       	mov    $0x7,%edi
  4011dc:	e8 7f fb ff ff       	callq  400d60 <signal@plt>
  4011e1:	be 76 1f 40 00       	mov    $0x401f76,%esi
  4011e6:	bf 04 00 00 00       	mov    $0x4,%edi
  4011eb:	e8 70 fb ff ff       	callq  400d60 <signal@plt>
  4011f0:	83 3d 31 43 20 00 00 	cmpl   $0x0,0x204331(%rip)        # 605528 <is_checker>
  4011f7:	74 20                	je     401219 <main+0x64>
  4011f9:	be c4 1f 40 00       	mov    $0x401fc4,%esi
  4011fe:	bf 0e 00 00 00       	mov    $0xe,%edi
  401203:	e8 58 fb ff ff       	callq  400d60 <signal@plt>
  401208:	bf 05 00 00 00       	mov    $0x5,%edi
  40120d:	e8 0e fb ff ff       	callq  400d20 <alarm@plt>
  401212:	bd 5a 31 40 00       	mov    $0x40315a,%ebp
  401217:	eb 05                	jmp    40121e <main+0x69>
  401219:	bd 55 31 40 00       	mov    $0x403155,%ebp
  40121e:	48 8b 05 9b 42 20 00 	mov    0x20429b(%rip),%rax        # 6054c0 <stdin@@GLIBC_2.2.5>
  401225:	48 89 05 e4 42 20 00 	mov    %rax,0x2042e4(%rip)        # 605510 <infile>
  40122c:	41 bd 00 00 00 00    	mov    $0x0,%r13d
  401232:	41 be 00 00 00 00    	mov    $0x0,%r14d
  401238:	e9 c6 00 00 00       	jmpq   401303 <main+0x14e>
  40123d:	83 e8 61             	sub    $0x61,%eax
  401240:	3c 10                	cmp    $0x10,%al
  401242:	0f 87 9c 00 00 00    	ja     4012e4 <main+0x12f>
  401248:	0f b6 c0             	movzbl %al,%eax
  40124b:	ff 24 c5 a0 31 40 00 	jmpq   *0x4031a0(,%rax,8)
  401252:	48 8b 3b             	mov    (%rbx),%rdi
  401255:	e8 4c fd ff ff       	callq  400fa6 <usage>
  40125a:	be 04 33 40 00       	mov    $0x403304,%esi
  40125f:	48 8b 3d 62 42 20 00 	mov    0x204262(%rip),%rdi        # 6054c8 <optarg@@GLIBC_2.2.5>
  401266:	e8 a5 fb ff ff       	callq  400e10 <fopen@plt>
  40126b:	48 89 05 9e 42 20 00 	mov    %rax,0x20429e(%rip)        # 605510 <infile>
  401272:	48 85 c0             	test   %rax,%rax
  401275:	0f 85 88 00 00 00    	jne    401303 <main+0x14e>
  40127b:	48 8b 0d 46 42 20 00 	mov    0x204246(%rip),%rcx        # 6054c8 <optarg@@GLIBC_2.2.5>
  401282:	ba 62 31 40 00       	mov    $0x403162,%edx
  401287:	be 01 00 00 00       	mov    $0x1,%esi
  40128c:	48 8b 3d 4d 42 20 00 	mov    0x20424d(%rip),%rdi        # 6054e0 <stderr@@GLIBC_2.2.5>
  401293:	e8 d8 fb ff ff       	callq  400e70 <__fprintf_chk@plt>
  401298:	b8 01 00 00 00       	mov    $0x1,%eax
  40129d:	e9 e4 00 00 00       	jmpq   401386 <main+0x1d1>
  4012a2:	ba 10 00 00 00       	mov    $0x10,%edx
  4012a7:	be 00 00 00 00       	mov    $0x0,%esi
  4012ac:	48 8b 3d 15 42 20 00 	mov    0x204215(%rip),%rdi        # 6054c8 <optarg@@GLIBC_2.2.5>
  4012b3:	e8 78 fb ff ff       	callq  400e30 <strtoul@plt>
  4012b8:	41 89 c6             	mov    %eax,%r14d
  4012bb:	eb 46                	jmp    401303 <main+0x14e>
  4012bd:	ba 0a 00 00 00       	mov    $0xa,%edx
  4012c2:	be 00 00 00 00       	mov    $0x0,%esi
  4012c7:	48 8b 3d fa 41 20 00 	mov    0x2041fa(%rip),%rdi        # 6054c8 <optarg@@GLIBC_2.2.5>
  4012ce:	e8 bd fa ff ff       	callq  400d90 <strtol@plt>
  4012d3:	41 89 c5             	mov    %eax,%r13d
  4012d6:	eb 2b                	jmp    401303 <main+0x14e>
  4012d8:	c7 05 c6 41 20 00 00 	movl   $0x0,0x2041c6(%rip)        # 6054a8 <notify>
  4012df:	00 00 00 
  4012e2:	eb 1f                	jmp    401303 <main+0x14e>
  4012e4:	0f be d2             	movsbl %dl,%edx
  4012e7:	be 7f 31 40 00       	mov    $0x40317f,%esi
  4012ec:	bf 01 00 00 00       	mov    $0x1,%edi
  4012f1:	b8 00 00 00 00       	mov    $0x0,%eax
  4012f6:	e8 05 fb ff ff       	callq  400e00 <__printf_chk@plt>
  4012fb:	48 8b 3b             	mov    (%rbx),%rdi
  4012fe:	e8 a3 fc ff ff       	callq  400fa6 <usage>
  401303:	48 89 ea             	mov    %rbp,%rdx
  401306:	48 89 de             	mov    %rbx,%rsi
  401309:	44 89 e7             	mov    %r12d,%edi
  40130c:	e8 0f fb ff ff       	callq  400e20 <getopt@plt>
  401311:	89 c2                	mov    %eax,%edx
  401313:	3c ff                	cmp    $0xff,%al
  401315:	0f 85 22 ff ff ff    	jne    40123d <main+0x88>
  40131b:	be 00 00 00 00       	mov    $0x0,%esi
  401320:	44 89 ef             	mov    %r13d,%edi
  401323:	e8 08 fd ff ff       	callq  401030 <initialize_target>
  401328:	83 3d f9 41 20 00 00 	cmpl   $0x0,0x2041f9(%rip)        # 605528 <is_checker>
  40132f:	74 2a                	je     40135b <main+0x1a6>
  401331:	44 3b 35 e8 41 20 00 	cmp    0x2041e8(%rip),%r14d        # 605520 <authkey>
  401338:	74 21                	je     40135b <main+0x1a6>
  40133a:	44 89 f2             	mov    %r14d,%edx
  40133d:	be b8 30 40 00       	mov    $0x4030b8,%esi
  401342:	bf 01 00 00 00       	mov    $0x1,%edi
  401347:	b8 00 00 00 00       	mov    $0x0,%eax
  40134c:	e8 af fa ff ff       	callq  400e00 <__printf_chk@plt>
  401351:	b8 00 00 00 00       	mov    $0x0,%eax
  401356:	e8 1b 08 00 00       	callq  401b76 <check_fail>
  40135b:	8b 15 c3 41 20 00    	mov    0x2041c3(%rip),%edx        # 605524 <cookie>
  401361:	be 92 31 40 00       	mov    $0x403192,%esi
  401366:	bf 01 00 00 00       	mov    $0x1,%edi
  40136b:	b8 00 00 00 00       	mov    $0x0,%eax
  401370:	e8 8b fa ff ff       	callq  400e00 <__printf_chk@plt>
  401375:	48 8b 3d 24 41 20 00 	mov    0x204124(%rip),%rdi        # 6054a0 <buf_offset>
  40137c:	e8 43 0d 00 00       	callq  4020c4 <stable_launch>
  401381:	b8 00 00 00 00       	mov    $0x0,%eax
  401386:	5b                   	pop    %rbx
  401387:	5d                   	pop    %rbp
  401388:	41 5c                	pop    %r12
  40138a:	41 5d                	pop    %r13
  40138c:	41 5e                	pop    %r14
  40138e:	c3                   	retq   

000000000040138f <scramble>:
  40138f:	48 83 ec 38          	sub    $0x38,%rsp
  401393:	64 48 8b 04 25 28 00 	mov    %fs:0x28,%rax
  40139a:	00 00 
  40139c:	48 89 44 24 28       	mov    %rax,0x28(%rsp)
  4013a1:	31 c0                	xor    %eax,%eax
  4013a3:	eb 10                	jmp    4013b5 <scramble+0x26>
  4013a5:	69 d0 4f 34 00 00    	imul   $0x344f,%eax,%edx
  4013ab:	01 fa                	add    %edi,%edx
  4013ad:	89 c1                	mov    %eax,%ecx
  4013af:	89 14 8c             	mov    %edx,(%rsp,%rcx,4)
  4013b2:	83 c0 01             	add    $0x1,%eax
  4013b5:	83 f8 09             	cmp    $0x9,%eax
  4013b8:	76 eb                	jbe    4013a5 <scramble+0x16>
  4013ba:	8b 44 24 14          	mov    0x14(%rsp),%eax
  4013be:	69 c0 a4 0d 00 00    	imul   $0xda4,%eax,%eax
  4013c4:	89 44 24 14          	mov    %eax,0x14(%rsp)
  4013c8:	8b 44 24 1c          	mov    0x1c(%rsp),%eax
  4013cc:	69 c0 3f 1e 00 00    	imul   $0x1e3f,%eax,%eax
  4013d2:	89 44 24 1c          	mov    %eax,0x1c(%rsp)
  4013d6:	8b 44 24 08          	mov    0x8(%rsp),%eax
  4013da:	69 c0 97 07 00 00    	imul   $0x797,%eax,%eax
  4013e0:	89 44 24 08          	mov    %eax,0x8(%rsp)
  4013e4:	8b 44 24 04          	mov    0x4(%rsp),%eax
  4013e8:	69 c0 2b 25 00 00    	imul   $0x252b,%eax,%eax
  4013ee:	89 44 24 04          	mov    %eax,0x4(%rsp)
  4013f2:	8b 44 24 04          	mov    0x4(%rsp),%eax
  4013f6:	69 c0 90 e1 00 00    	imul   $0xe190,%eax,%eax
  4013fc:	89 44 24 04          	mov    %eax,0x4(%rsp)
  401400:	8b 44 24 20          	mov    0x20(%rsp),%eax
  401404:	69 c0 24 dd 00 00    	imul   $0xdd24,%eax,%eax
  40140a:	89 44 24 20          	mov    %eax,0x20(%rsp)
  40140e:	8b 44 24 24          	mov    0x24(%rsp),%eax
  401412:	69 c0 4e 8a 00 00    	imul   $0x8a4e,%eax,%eax
  401418:	89 44 24 24          	mov    %eax,0x24(%rsp)
  40141c:	8b 44 24 24          	mov    0x24(%rsp),%eax
  401420:	69 c0 5d 4a 00 00    	imul   $0x4a5d,%eax,%eax
  401426:	89 44 24 24          	mov    %eax,0x24(%rsp)
  40142a:	8b 44 24 1c          	mov    0x1c(%rsp),%eax
  40142e:	69 c0 77 14 00 00    	imul   $0x1477,%eax,%eax
  401434:	89 44 24 1c          	mov    %eax,0x1c(%rsp)
  401438:	8b 44 24 24          	mov    0x24(%rsp),%eax
  40143c:	69 c0 c0 9e 00 00    	imul   $0x9ec0,%eax,%eax
  401442:	89 44 24 24          	mov    %eax,0x24(%rsp)
  401446:	8b 44 24 20          	mov    0x20(%rsp),%eax
  40144a:	69 c0 e3 c2 00 00    	imul   $0xc2e3,%eax,%eax
  401450:	89 44 24 20          	mov    %eax,0x20(%rsp)
  401454:	8b 44 24 08          	mov    0x8(%rsp),%eax
  401458:	69 c0 f3 eb 00 00    	imul   $0xebf3,%eax,%eax
  40145e:	89 44 24 08          	mov    %eax,0x8(%rsp)
  401462:	8b 44 24 1c          	mov    0x1c(%rsp),%eax
  401466:	69 c0 a3 5f 00 00    	imul   $0x5fa3,%eax,%eax
  40146c:	89 44 24 1c          	mov    %eax,0x1c(%rsp)
  401470:	8b 04 24             	mov    (%rsp),%eax
  401473:	69 c0 3c f9 00 00    	imul   $0xf93c,%eax,%eax
  401479:	89 04 24             	mov    %eax,(%rsp)
  40147c:	8b 44 24 14          	mov    0x14(%rsp),%eax
  401480:	69 c0 76 a2 00 00    	imul   $0xa276,%eax,%eax
  401486:	89 44 24 14          	mov    %eax,0x14(%rsp)
  40148a:	8b 44 24 08          	mov    0x8(%rsp),%eax
  40148e:	69 c0 2f 48 00 00    	imul   $0x482f,%eax,%eax
  401494:	89 44 24 08          	mov    %eax,0x8(%rsp)
  401498:	8b 44 24 20          	mov    0x20(%rsp),%eax
  40149c:	69 c0 09 90 00 00    	imul   $0x9009,%eax,%eax
  4014a2:	89 44 24 20          	mov    %eax,0x20(%rsp)
  4014a6:	8b 44 24 20          	mov    0x20(%rsp),%eax
  4014aa:	69 c0 3d c6 00 00    	imul   $0xc63d,%eax,%eax
  4014b0:	89 44 24 20          	mov    %eax,0x20(%rsp)
  4014b4:	8b 04 24             	mov    (%rsp),%eax
  4014b7:	69 c0 0b 10 00 00    	imul   $0x100b,%eax,%eax
  4014bd:	89 04 24             	mov    %eax,(%rsp)
  4014c0:	8b 44 24 0c          	mov    0xc(%rsp),%eax
  4014c4:	69 c0 b6 07 00 00    	imul   $0x7b6,%eax,%eax
  4014ca:	89 44 24 0c          	mov    %eax,0xc(%rsp)
  4014ce:	8b 44 24 10          	mov    0x10(%rsp),%eax
  4014d2:	69 c0 c7 db 00 00    	imul   $0xdbc7,%eax,%eax
  4014d8:	89 44 24 10          	mov    %eax,0x10(%rsp)
  4014dc:	8b 44 24 1c          	mov    0x1c(%rsp),%eax
  4014e0:	69 c0 57 d2 00 00    	imul   $0xd257,%eax,%eax
  4014e6:	89 44 24 1c          	mov    %eax,0x1c(%rsp)
  4014ea:	8b 44 24 04          	mov    0x4(%rsp),%eax
  4014ee:	69 c0 9c a6 00 00    	imul   $0xa69c,%eax,%eax
  4014f4:	89 44 24 04          	mov    %eax,0x4(%rsp)
  4014f8:	8b 44 24 14          	mov    0x14(%rsp),%eax
  4014fc:	69 c0 50 5c 00 00    	imul   $0x5c50,%eax,%eax
  401502:	89 44 24 14          	mov    %eax,0x14(%rsp)
  401506:	8b 44 24 04          	mov    0x4(%rsp),%eax
  40150a:	69 c0 a4 ec 00 00    	imul   $0xeca4,%eax,%eax
  401510:	89 44 24 04          	mov    %eax,0x4(%rsp)
  401514:	8b 44 24 20          	mov    0x20(%rsp),%eax
  401518:	69 c0 d1 51 00 00    	imul   $0x51d1,%eax,%eax
  40151e:	89 44 24 20          	mov    %eax,0x20(%rsp)
  401522:	8b 04 24             	mov    (%rsp),%eax
  401525:	69 c0 f9 74 00 00    	imul   $0x74f9,%eax,%eax
  40152b:	89 04 24             	mov    %eax,(%rsp)
  40152e:	8b 44 24 10          	mov    0x10(%rsp),%eax
  401532:	69 c0 42 04 00 00    	imul   $0x442,%eax,%eax
  401538:	89 44 24 10          	mov    %eax,0x10(%rsp)
  40153c:	8b 04 24             	mov    (%rsp),%eax
  40153f:	69 c0 33 94 00 00    	imul   $0x9433,%eax,%eax
  401545:	89 04 24             	mov    %eax,(%rsp)
  401548:	8b 44 24 14          	mov    0x14(%rsp),%eax
  40154c:	69 c0 7c e8 00 00    	imul   $0xe87c,%eax,%eax
  401552:	89 44 24 14          	mov    %eax,0x14(%rsp)
  401556:	8b 44 24 14          	mov    0x14(%rsp),%eax
  40155a:	69 c0 31 62 00 00    	imul   $0x6231,%eax,%eax
  401560:	89 44 24 14          	mov    %eax,0x14(%rsp)
  401564:	8b 44 24 20          	mov    0x20(%rsp),%eax
  401568:	69 c0 c3 e6 00 00    	imul   $0xe6c3,%eax,%eax
  40156e:	89 44 24 20          	mov    %eax,0x20(%rsp)
  401572:	8b 44 24 24          	mov    0x24(%rsp),%eax
  401576:	69 c0 1a 97 00 00    	imul   $0x971a,%eax,%eax
  40157c:	89 44 24 24          	mov    %eax,0x24(%rsp)
  401580:	8b 44 24 24          	mov    0x24(%rsp),%eax
  401584:	69 c0 db 89 00 00    	imul   $0x89db,%eax,%eax
  40158a:	89 44 24 24          	mov    %eax,0x24(%rsp)
  40158e:	8b 44 24 24          	mov    0x24(%rsp),%eax
  401592:	69 c0 69 98 00 00    	imul   $0x9869,%eax,%eax
  401598:	89 44 24 24          	mov    %eax,0x24(%rsp)
  40159c:	8b 44 24 04          	mov    0x4(%rsp),%eax
  4015a0:	69 c0 c0 98 00 00    	imul   $0x98c0,%eax,%eax
  4015a6:	89 44 24 04          	mov    %eax,0x4(%rsp)
  4015aa:	8b 44 24 1c          	mov    0x1c(%rsp),%eax
  4015ae:	69 c0 6b 76 00 00    	imul   $0x766b,%eax,%eax
  4015b4:	89 44 24 1c          	mov    %eax,0x1c(%rsp)
  4015b8:	8b 44 24 04          	mov    0x4(%rsp),%eax
  4015bc:	69 c0 46 da 00 00    	imul   $0xda46,%eax,%eax
  4015c2:	89 44 24 04          	mov    %eax,0x4(%rsp)
  4015c6:	8b 44 24 24          	mov    0x24(%rsp),%eax
  4015ca:	69 c0 cc 87 00 00    	imul   $0x87cc,%eax,%eax
  4015d0:	89 44 24 24          	mov    %eax,0x24(%rsp)
  4015d4:	8b 44 24 1c          	mov    0x1c(%rsp),%eax
  4015d8:	69 c0 1b d8 00 00    	imul   $0xd81b,%eax,%eax
  4015de:	89 44 24 1c          	mov    %eax,0x1c(%rsp)
  4015e2:	8b 44 24 18          	mov    0x18(%rsp),%eax
  4015e6:	69 c0 a8 31 00 00    	imul   $0x31a8,%eax,%eax
  4015ec:	89 44 24 18          	mov    %eax,0x18(%rsp)
  4015f0:	8b 44 24 0c          	mov    0xc(%rsp),%eax
  4015f4:	69 c0 f9 23 00 00    	imul   $0x23f9,%eax,%eax
  4015fa:	89 44 24 0c          	mov    %eax,0xc(%rsp)
  4015fe:	8b 44 24 24          	mov    0x24(%rsp),%eax
  401602:	69 c0 b0 67 00 00    	imul   $0x67b0,%eax,%eax
  401608:	89 44 24 24          	mov    %eax,0x24(%rsp)
  40160c:	8b 44 24 1c          	mov    0x1c(%rsp),%eax
  401610:	69 c0 3d 7b 00 00    	imul   $0x7b3d,%eax,%eax
  401616:	89 44 24 1c          	mov    %eax,0x1c(%rsp)
  40161a:	8b 44 24 20          	mov    0x20(%rsp),%eax
  40161e:	69 c0 b9 25 00 00    	imul   $0x25b9,%eax,%eax
  401624:	89 44 24 20          	mov    %eax,0x20(%rsp)
  401628:	8b 44 24 18          	mov    0x18(%rsp),%eax
  40162c:	69 c0 8c 32 00 00    	imul   $0x328c,%eax,%eax
  401632:	89 44 24 18          	mov    %eax,0x18(%rsp)
  401636:	8b 44 24 04          	mov    0x4(%rsp),%eax
  40163a:	69 c0 65 94 00 00    	imul   $0x9465,%eax,%eax
  401640:	89 44 24 04          	mov    %eax,0x4(%rsp)
  401644:	8b 44 24 24          	mov    0x24(%rsp),%eax
  401648:	69 c0 25 7a 00 00    	imul   $0x7a25,%eax,%eax
  40164e:	89 44 24 24          	mov    %eax,0x24(%rsp)
  401652:	8b 44 24 10          	mov    0x10(%rsp),%eax
  401656:	69 c0 50 c6 00 00    	imul   $0xc650,%eax,%eax
  40165c:	89 44 24 10          	mov    %eax,0x10(%rsp)
  401660:	8b 44 24 08          	mov    0x8(%rsp),%eax
  401664:	69 c0 a4 d2 00 00    	imul   $0xd2a4,%eax,%eax
  40166a:	89 44 24 08          	mov    %eax,0x8(%rsp)
  40166e:	8b 44 24 08          	mov    0x8(%rsp),%eax
  401672:	69 c0 91 95 00 00    	imul   $0x9591,%eax,%eax
  401678:	89 44 24 08          	mov    %eax,0x8(%rsp)
  40167c:	8b 04 24             	mov    (%rsp),%eax
  40167f:	69 c0 eb d2 00 00    	imul   $0xd2eb,%eax,%eax
  401685:	89 04 24             	mov    %eax,(%rsp)
  401688:	8b 44 24 14          	mov    0x14(%rsp),%eax
  40168c:	69 c0 7c d6 00 00    	imul   $0xd67c,%eax,%eax
  401692:	89 44 24 14          	mov    %eax,0x14(%rsp)
  401696:	8b 44 24 08          	mov    0x8(%rsp),%eax
  40169a:	69 c0 04 29 00 00    	imul   $0x2904,%eax,%eax
  4016a0:	89 44 24 08          	mov    %eax,0x8(%rsp)
  4016a4:	8b 44 24 04          	mov    0x4(%rsp),%eax
  4016a8:	69 c0 c8 e3 00 00    	imul   $0xe3c8,%eax,%eax
  4016ae:	89 44 24 04          	mov    %eax,0x4(%rsp)
  4016b2:	8b 44 24 20          	mov    0x20(%rsp),%eax
  4016b6:	69 c0 b9 d2 00 00    	imul   $0xd2b9,%eax,%eax
  4016bc:	89 44 24 20          	mov    %eax,0x20(%rsp)
  4016c0:	8b 44 24 20          	mov    0x20(%rsp),%eax
  4016c4:	69 c0 0b 2b 00 00    	imul   $0x2b0b,%eax,%eax
  4016ca:	89 44 24 20          	mov    %eax,0x20(%rsp)
  4016ce:	8b 44 24 14          	mov    0x14(%rsp),%eax
  4016d2:	69 c0 11 bc 00 00    	imul   $0xbc11,%eax,%eax
  4016d8:	89 44 24 14          	mov    %eax,0x14(%rsp)
  4016dc:	8b 44 24 14          	mov    0x14(%rsp),%eax
  4016e0:	69 c0 ed 1e 00 00    	imul   $0x1eed,%eax,%eax
  4016e6:	89 44 24 14          	mov    %eax,0x14(%rsp)
  4016ea:	8b 44 24 18          	mov    0x18(%rsp),%eax
  4016ee:	69 c0 9e 8e 00 00    	imul   $0x8e9e,%eax,%eax
  4016f4:	89 44 24 18          	mov    %eax,0x18(%rsp)
  4016f8:	8b 44 24 20          	mov    0x20(%rsp),%eax
  4016fc:	69 c0 09 9b 00 00    	imul   $0x9b09,%eax,%eax
  401702:	89 44 24 20          	mov    %eax,0x20(%rsp)
  401706:	8b 44 24 20          	mov    0x20(%rsp),%eax
  40170a:	69 c0 91 cc 00 00    	imul   $0xcc91,%eax,%eax
  401710:	89 44 24 20          	mov    %eax,0x20(%rsp)
  401714:	8b 44 24 08          	mov    0x8(%rsp),%eax
  401718:	69 c0 79 da 00 00    	imul   $0xda79,%eax,%eax
  40171e:	89 44 24 08          	mov    %eax,0x8(%rsp)
  401722:	8b 44 24 10          	mov    0x10(%rsp),%eax
  401726:	69 c0 ee 5a 00 00    	imul   $0x5aee,%eax,%eax
  40172c:	89 44 24 10          	mov    %eax,0x10(%rsp)
  401730:	8b 04 24             	mov    (%rsp),%eax
  401733:	69 c0 b6 4a 00 00    	imul   $0x4ab6,%eax,%eax
  401739:	89 04 24             	mov    %eax,(%rsp)
  40173c:	8b 44 24 0c          	mov    0xc(%rsp),%eax
  401740:	69 c0 84 ff 00 00    	imul   $0xff84,%eax,%eax
  401746:	89 44 24 0c          	mov    %eax,0xc(%rsp)
  40174a:	8b 44 24 0c          	mov    0xc(%rsp),%eax
  40174e:	69 c0 f7 98 00 00    	imul   $0x98f7,%eax,%eax
  401754:	89 44 24 0c          	mov    %eax,0xc(%rsp)
  401758:	8b 44 24 1c          	mov    0x1c(%rsp),%eax
  40175c:	69 c0 43 ec 00 00    	imul   $0xec43,%eax,%eax
  401762:	89 44 24 1c          	mov    %eax,0x1c(%rsp)
  401766:	8b 44 24 24          	mov    0x24(%rsp),%eax
  40176a:	69 c0 a0 7f 00 00    	imul   $0x7fa0,%eax,%eax
  401770:	89 44 24 24          	mov    %eax,0x24(%rsp)
  401774:	8b 44 24 1c          	mov    0x1c(%rsp),%eax
  401778:	69 c0 bb cd 00 00    	imul   $0xcdbb,%eax,%eax
  40177e:	89 44 24 1c          	mov    %eax,0x1c(%rsp)
  401782:	8b 44 24 04          	mov    0x4(%rsp),%eax
  401786:	69 c0 66 16 00 00    	imul   $0x1666,%eax,%eax
  40178c:	89 44 24 04          	mov    %eax,0x4(%rsp)
  401790:	8b 44 24 04          	mov    0x4(%rsp),%eax
  401794:	69 c0 d9 78 00 00    	imul   $0x78d9,%eax,%eax
  40179a:	89 44 24 04          	mov    %eax,0x4(%rsp)
  40179e:	8b 44 24 0c          	mov    0xc(%rsp),%eax
  4017a2:	69 c0 27 97 00 00    	imul   $0x9727,%eax,%eax
  4017a8:	89 44 24 0c          	mov    %eax,0xc(%rsp)
  4017ac:	8b 44 24 24          	mov    0x24(%rsp),%eax
  4017b0:	69 c0 2c d4 00 00    	imul   $0xd42c,%eax,%eax
  4017b6:	89 44 24 24          	mov    %eax,0x24(%rsp)
  4017ba:	8b 04 24             	mov    (%rsp),%eax
  4017bd:	69 c0 3a 6c 00 00    	imul   $0x6c3a,%eax,%eax
  4017c3:	89 04 24             	mov    %eax,(%rsp)
  4017c6:	8b 44 24 14          	mov    0x14(%rsp),%eax
  4017ca:	69 c0 bb fa 00 00    	imul   $0xfabb,%eax,%eax
  4017d0:	89 44 24 14          	mov    %eax,0x14(%rsp)
  4017d4:	8b 44 24 08          	mov    0x8(%rsp),%eax
  4017d8:	69 c0 f4 23 00 00    	imul   $0x23f4,%eax,%eax
  4017de:	89 44 24 08          	mov    %eax,0x8(%rsp)
  4017e2:	8b 44 24 08          	mov    0x8(%rsp),%eax
  4017e6:	69 c0 b1 36 00 00    	imul   $0x36b1,%eax,%eax
  4017ec:	89 44 24 08          	mov    %eax,0x8(%rsp)
  4017f0:	8b 44 24 1c          	mov    0x1c(%rsp),%eax
  4017f4:	69 c0 02 0e 00 00    	imul   $0xe02,%eax,%eax
  4017fa:	89 44 24 1c          	mov    %eax,0x1c(%rsp)
  4017fe:	8b 44 24 08          	mov    0x8(%rsp),%eax
  401802:	69 c0 38 9f 00 00    	imul   $0x9f38,%eax,%eax
  401808:	89 44 24 08          	mov    %eax,0x8(%rsp)
  40180c:	8b 44 24 10          	mov    0x10(%rsp),%eax
  401810:	69 c0 32 bf 00 00    	imul   $0xbf32,%eax,%eax
  401816:	89 44 24 10          	mov    %eax,0x10(%rsp)
  40181a:	8b 44 24 14          	mov    0x14(%rsp),%eax
  40181e:	69 c0 ff 38 00 00    	imul   $0x38ff,%eax,%eax
  401824:	89 44 24 14          	mov    %eax,0x14(%rsp)
  401828:	8b 44 24 14          	mov    0x14(%rsp),%eax
  40182c:	69 c0 2b 71 00 00    	imul   $0x712b,%eax,%eax
  401832:	89 44 24 14          	mov    %eax,0x14(%rsp)
  401836:	8b 44 24 24          	mov    0x24(%rsp),%eax
  40183a:	69 c0 9c c7 00 00    	imul   $0xc79c,%eax,%eax
  401840:	89 44 24 24          	mov    %eax,0x24(%rsp)
  401844:	8b 44 24 0c          	mov    0xc(%rsp),%eax
  401848:	69 c0 8a 3a 00 00    	imul   $0x3a8a,%eax,%eax
  40184e:	89 44 24 0c          	mov    %eax,0xc(%rsp)
  401852:	8b 44 24 24          	mov    0x24(%rsp),%eax
  401856:	69 c0 34 54 00 00    	imul   $0x5434,%eax,%eax
  40185c:	89 44 24 24          	mov    %eax,0x24(%rsp)
  401860:	8b 44 24 18          	mov    0x18(%rsp),%eax
  401864:	69 c0 cc 35 00 00    	imul   $0x35cc,%eax,%eax
  40186a:	89 44 24 18          	mov    %eax,0x18(%rsp)
  40186e:	8b 44 24 20          	mov    0x20(%rsp),%eax
  401872:	69 c0 62 92 00 00    	imul   $0x9262,%eax,%eax
  401878:	89 44 24 20          	mov    %eax,0x20(%rsp)
  40187c:	8b 44 24 24          	mov    0x24(%rsp),%eax
  401880:	69 c0 f9 01 00 00    	imul   $0x1f9,%eax,%eax
  401886:	89 44 24 24          	mov    %eax,0x24(%rsp)
  40188a:	8b 44 24 04          	mov    0x4(%rsp),%eax
  40188e:	69 c0 09 83 00 00    	imul   $0x8309,%eax,%eax
  401894:	89 44 24 04          	mov    %eax,0x4(%rsp)
  401898:	8b 44 24 18          	mov    0x18(%rsp),%eax
  40189c:	69 c0 59 c9 00 00    	imul   $0xc959,%eax,%eax
  4018a2:	89 44 24 18          	mov    %eax,0x18(%rsp)
  4018a6:	8b 44 24 08          	mov    0x8(%rsp),%eax
  4018aa:	69 c0 76 75 00 00    	imul   $0x7576,%eax,%eax
  4018b0:	89 44 24 08          	mov    %eax,0x8(%rsp)
  4018b4:	8b 44 24 0c          	mov    0xc(%rsp),%eax
  4018b8:	69 c0 11 45 00 00    	imul   $0x4511,%eax,%eax
  4018be:	89 44 24 0c          	mov    %eax,0xc(%rsp)
  4018c2:	8b 44 24 14          	mov    0x14(%rsp),%eax
  4018c6:	69 c0 bc eb 00 00    	imul   $0xebbc,%eax,%eax
  4018cc:	89 44 24 14          	mov    %eax,0x14(%rsp)
  4018d0:	8b 44 24 10          	mov    0x10(%rsp),%eax
  4018d4:	69 c0 c7 3d 00 00    	imul   $0x3dc7,%eax,%eax
  4018da:	89 44 24 10          	mov    %eax,0x10(%rsp)
  4018de:	8b 44 24 24          	mov    0x24(%rsp),%eax
  4018e2:	69 c0 cc ab 00 00    	imul   $0xabcc,%eax,%eax
  4018e8:	89 44 24 24          	mov    %eax,0x24(%rsp)
  4018ec:	ba 00 00 00 00       	mov    $0x0,%edx
  4018f1:	b8 00 00 00 00       	mov    $0x0,%eax
  4018f6:	eb 0a                	jmp    401902 <scramble+0x573>
  4018f8:	89 d1                	mov    %edx,%ecx
  4018fa:	8b 0c 8c             	mov    (%rsp,%rcx,4),%ecx
  4018fd:	01 c8                	add    %ecx,%eax
  4018ff:	83 c2 01             	add    $0x1,%edx
  401902:	83 fa 09             	cmp    $0x9,%edx
  401905:	76 f1                	jbe    4018f8 <scramble+0x569>
  401907:	48 8b 74 24 28       	mov    0x28(%rsp),%rsi
  40190c:	64 48 33 34 25 28 00 	xor    %fs:0x28,%rsi
  401913:	00 00 
  401915:	74 05                	je     40191c <scramble+0x58d>
  401917:	e8 d4 f3 ff ff       	callq  400cf0 <__stack_chk_fail@plt>
  40191c:	48 83 c4 38          	add    $0x38,%rsp
  401920:	c3                   	retq   

0000000000401921 <getbuf>:
  401921:	48 83 ec 28          	sub    $0x28,%rsp
  401925:	48 89 e7             	mov    %rsp,%rdi
  401928:	e8 7e 02 00 00       	callq  401bab <Gets>
  40192d:	b8 01 00 00 00       	mov    $0x1,%eax
  401932:	48 83 c4 28          	add    $0x28,%rsp
  401936:	c3                   	retq   

0000000000401937 <touch1>:
  401937:	48 83 ec 08          	sub    $0x8,%rsp
  40193b:	c7 05 d7 3b 20 00 01 	movl   $0x1,0x203bd7(%rip)        # 60551c <vlevel>
  401942:	00 00 00 
  401945:	bf 0d 33 40 00       	mov    $0x40330d,%edi
  40194a:	e8 81 f3 ff ff       	callq  400cd0 <puts@plt>
  40194f:	bf 01 00 00 00       	mov    $0x1,%edi
  401954:	e8 97 04 00 00       	callq  401df0 <validate>
  401959:	bf 00 00 00 00       	mov    $0x0,%edi
  40195e:	e8 ed f4 ff ff       	callq  400e50 <exit@plt>

0000000000401963 <touch2>:
  401963:	48 83 ec 08          	sub    $0x8,%rsp
  401967:	89 fa                	mov    %edi,%edx
  401969:	c7 05 a9 3b 20 00 02 	movl   $0x2,0x203ba9(%rip)        # 60551c <vlevel>
  401970:	00 00 00 
  401973:	39 3d ab 3b 20 00    	cmp    %edi,0x203bab(%rip)        # 605524 <cookie>
  401979:	75 20                	jne    40199b <touch2+0x38>
  40197b:	be 30 33 40 00       	mov    $0x403330,%esi
  401980:	bf 01 00 00 00       	mov    $0x1,%edi
  401985:	b8 00 00 00 00       	mov    $0x0,%eax
  40198a:	e8 71 f4 ff ff       	callq  400e00 <__printf_chk@plt>
  40198f:	bf 02 00 00 00       	mov    $0x2,%edi
  401994:	e8 57 04 00 00       	callq  401df0 <validate>
  401999:	eb 1e                	jmp    4019b9 <touch2+0x56>
  40199b:	be 58 33 40 00       	mov    $0x403358,%esi
  4019a0:	bf 01 00 00 00       	mov    $0x1,%edi
  4019a5:	b8 00 00 00 00       	mov    $0x0,%eax
  4019aa:	e8 51 f4 ff ff       	callq  400e00 <__printf_chk@plt>
  4019af:	bf 02 00 00 00       	mov    $0x2,%edi
  4019b4:	e8 f9 04 00 00       	callq  401eb2 <fail>
  4019b9:	bf 00 00 00 00       	mov    $0x0,%edi
  4019be:	e8 8d f4 ff ff       	callq  400e50 <exit@plt>

00000000004019c3 <hexmatch>:
  4019c3:	41 54                	push   %r12
  4019c5:	55                   	push   %rbp
  4019c6:	53                   	push   %rbx
  4019c7:	48 83 c4 80          	add    $0xffffffffffffff80,%rsp
  4019cb:	89 fd                	mov    %edi,%ebp
  4019cd:	48 89 f3             	mov    %rsi,%rbx
  4019d0:	64 48 8b 04 25 28 00 	mov    %fs:0x28,%rax
  4019d7:	00 00 
  4019d9:	48 89 44 24 78       	mov    %rax,0x78(%rsp)
  4019de:	31 c0                	xor    %eax,%eax
  4019e0:	e8 db f3 ff ff       	callq  400dc0 <random@plt>
  4019e5:	48 89 c1             	mov    %rax,%rcx
  4019e8:	48 ba 0b d7 a3 70 3d 	movabs $0xa3d70a3d70a3d70b,%rdx
  4019ef:	0a d7 a3 
  4019f2:	48 f7 ea             	imul   %rdx
  4019f5:	48 01 ca             	add    %rcx,%rdx
  4019f8:	48 c1 fa 06          	sar    $0x6,%rdx
  4019fc:	48 89 c8             	mov    %rcx,%rax
  4019ff:	48 c1 f8 3f          	sar    $0x3f,%rax
  401a03:	48 29 c2             	sub    %rax,%rdx
  401a06:	48 8d 04 92          	lea    (%rdx,%rdx,4),%rax
  401a0a:	48 8d 14 80          	lea    (%rax,%rax,4),%rdx
  401a0e:	48 8d 04 95 00 00 00 	lea    0x0(,%rdx,4),%rax
  401a15:	00 
  401a16:	48 29 c1             	sub    %rax,%rcx
  401a19:	4c 8d 24 0c          	lea    (%rsp,%rcx,1),%r12
  401a1d:	41 89 e8             	mov    %ebp,%r8d
  401a20:	b9 2a 33 40 00       	mov    $0x40332a,%ecx
  401a25:	48 c7 c2 ff ff ff ff 	mov    $0xffffffffffffffff,%rdx
  401a2c:	be 01 00 00 00       	mov    $0x1,%esi
  401a31:	4c 89 e7             	mov    %r12,%rdi
  401a34:	b8 00 00 00 00       	mov    $0x0,%eax
  401a39:	e8 42 f4 ff ff       	callq  400e80 <__sprintf_chk@plt>
  401a3e:	ba 09 00 00 00       	mov    $0x9,%edx
  401a43:	4c 89 e6             	mov    %r12,%rsi
  401a46:	48 89 df             	mov    %rbx,%rdi
  401a49:	e8 62 f2 ff ff       	callq  400cb0 <strncmp@plt>
  401a4e:	85 c0                	test   %eax,%eax
  401a50:	0f 94 c0             	sete   %al
  401a53:	48 8b 5c 24 78       	mov    0x78(%rsp),%rbx
  401a58:	64 48 33 1c 25 28 00 	xor    %fs:0x28,%rbx
  401a5f:	00 00 
  401a61:	74 05                	je     401a68 <hexmatch+0xa5>
  401a63:	e8 88 f2 ff ff       	callq  400cf0 <__stack_chk_fail@plt>
  401a68:	0f b6 c0             	movzbl %al,%eax
  401a6b:	48 83 ec 80          	sub    $0xffffffffffffff80,%rsp
  401a6f:	5b                   	pop    %rbx
  401a70:	5d                   	pop    %rbp
  401a71:	41 5c                	pop    %r12
  401a73:	c3                   	retq   

0000000000401a74 <touch3>:
  401a74:	53                   	push   %rbx
  401a75:	48 89 fb             	mov    %rdi,%rbx
  401a78:	c7 05 9a 3a 20 00 03 	movl   $0x3,0x203a9a(%rip)        # 60551c <vlevel>
  401a7f:	00 00 00 
  401a82:	48 89 fe             	mov    %rdi,%rsi
  401a85:	8b 3d 99 3a 20 00    	mov    0x203a99(%rip),%edi        # 605524 <cookie>
  401a8b:	e8 33 ff ff ff       	callq  4019c3 <hexmatch>
  401a90:	85 c0                	test   %eax,%eax
  401a92:	74 23                	je     401ab7 <touch3+0x43>
  401a94:	48 89 da             	mov    %rbx,%rdx
  401a97:	be 80 33 40 00       	mov    $0x403380,%esi
  401a9c:	bf 01 00 00 00       	mov    $0x1,%edi
  401aa1:	b8 00 00 00 00       	mov    $0x0,%eax
  401aa6:	e8 55 f3 ff ff       	callq  400e00 <__printf_chk@plt>
  401aab:	bf 03 00 00 00       	mov    $0x3,%edi
  401ab0:	e8 3b 03 00 00       	callq  401df0 <validate>
  401ab5:	eb 21                	jmp    401ad8 <touch3+0x64>
  401ab7:	48 89 da             	mov    %rbx,%rdx
  401aba:	be a8 33 40 00       	mov    $0x4033a8,%esi
  401abf:	bf 01 00 00 00       	mov    $0x1,%edi
  401ac4:	b8 00 00 00 00       	mov    $0x0,%eax
  401ac9:	e8 32 f3 ff ff       	callq  400e00 <__printf_chk@plt>
  401ace:	bf 03 00 00 00       	mov    $0x3,%edi
  401ad3:	e8 da 03 00 00       	callq  401eb2 <fail>
  401ad8:	bf 00 00 00 00       	mov    $0x0,%edi
  401add:	e8 6e f3 ff ff       	callq  400e50 <exit@plt>

0000000000401ae2 <test>:
  401ae2:	48 83 ec 08          	sub    $0x8,%rsp
  401ae6:	b8 00 00 00 00       	mov    $0x0,%eax
  401aeb:	e8 31 fe ff ff       	callq  401921 <getbuf>
  401af0:	89 c2                	mov    %eax,%edx
  401af2:	be d0 33 40 00       	mov    $0x4033d0,%esi
  401af7:	bf 01 00 00 00       	mov    $0x1,%edi
  401afc:	b8 00 00 00 00       	mov    $0x0,%eax
  401b01:	e8 fa f2 ff ff       	callq  400e00 <__printf_chk@plt>
  401b06:	48 83 c4 08          	add    $0x8,%rsp
  401b0a:	c3                   	retq   

0000000000401b0b <save_char>:
  401b0b:	8b 05 33 46 20 00    	mov    0x204633(%rip),%eax        # 606144 <gets_cnt>
  401b11:	3d ff 03 00 00       	cmp    $0x3ff,%eax
  401b16:	7f 49                	jg     401b61 <save_char+0x56>
  401b18:	8d 14 40             	lea    (%rax,%rax,2),%edx
  401b1b:	89 f9                	mov    %edi,%ecx
  401b1d:	c0 e9 04             	shr    $0x4,%cl
  401b20:	83 e1 0f             	and    $0xf,%ecx
  401b23:	0f b6 b1 f0 36 40 00 	movzbl 0x4036f0(%rcx),%esi
  401b2a:	48 63 ca             	movslq %edx,%rcx
  401b2d:	40 88 b1 40 55 60 00 	mov    %sil,0x605540(%rcx)
  401b34:	8d 4a 01             	lea    0x1(%rdx),%ecx
  401b37:	83 e7 0f             	and    $0xf,%edi
  401b3a:	0f b6 b7 f0 36 40 00 	movzbl 0x4036f0(%rdi),%esi
  401b41:	48 63 c9             	movslq %ecx,%rcx
  401b44:	40 88 b1 40 55 60 00 	mov    %sil,0x605540(%rcx)
  401b4b:	83 c2 02             	add    $0x2,%edx
  401b4e:	48 63 d2             	movslq %edx,%rdx
  401b51:	c6 82 40 55 60 00 20 	movb   $0x20,0x605540(%rdx)
  401b58:	83 c0 01             	add    $0x1,%eax
  401b5b:	89 05 e3 45 20 00    	mov    %eax,0x2045e3(%rip)        # 606144 <gets_cnt>
  401b61:	f3 c3                	repz retq 

0000000000401b63 <save_term>:
  401b63:	8b 05 db 45 20 00    	mov    0x2045db(%rip),%eax        # 606144 <gets_cnt>
  401b69:	8d 04 40             	lea    (%rax,%rax,2),%eax
  401b6c:	48 98                	cltq   
  401b6e:	c6 80 40 55 60 00 00 	movb   $0x0,0x605540(%rax)
  401b75:	c3                   	retq   

0000000000401b76 <check_fail>:
  401b76:	48 83 ec 08          	sub    $0x8,%rsp
  401b7a:	0f be 15 c7 45 20 00 	movsbl 0x2045c7(%rip),%edx        # 606148 <target_prefix>
  401b81:	41 b8 40 55 60 00    	mov    $0x605540,%r8d
  401b87:	8b 0d 8b 39 20 00    	mov    0x20398b(%rip),%ecx        # 605518 <check_level>
  401b8d:	be f3 33 40 00       	mov    $0x4033f3,%esi
  401b92:	bf 01 00 00 00       	mov    $0x1,%edi
  401b97:	b8 00 00 00 00       	mov    $0x0,%eax
  401b9c:	e8 5f f2 ff ff       	callq  400e00 <__printf_chk@plt>
  401ba1:	bf 01 00 00 00       	mov    $0x1,%edi
  401ba6:	e8 a5 f2 ff ff       	callq  400e50 <exit@plt>

0000000000401bab <Gets>:
  401bab:	41 54                	push   %r12
  401bad:	55                   	push   %rbp
  401bae:	53                   	push   %rbx
  401baf:	49 89 fc             	mov    %rdi,%r12
  401bb2:	c7 05 88 45 20 00 00 	movl   $0x0,0x204588(%rip)        # 606144 <gets_cnt>
  401bb9:	00 00 00 
  401bbc:	48 89 fb             	mov    %rdi,%rbx
  401bbf:	eb 11                	jmp    401bd2 <Gets+0x27>
  401bc1:	48 8d 6b 01          	lea    0x1(%rbx),%rbp
  401bc5:	88 03                	mov    %al,(%rbx)
  401bc7:	0f b6 f8             	movzbl %al,%edi
  401bca:	e8 3c ff ff ff       	callq  401b0b <save_char>
  401bcf:	48 89 eb             	mov    %rbp,%rbx
  401bd2:	48 8b 3d 37 39 20 00 	mov    0x203937(%rip),%rdi        # 605510 <infile>
  401bd9:	e8 f2 f1 ff ff       	callq  400dd0 <_IO_getc@plt>
  401bde:	83 f8 ff             	cmp    $0xffffffff,%eax
  401be1:	74 05                	je     401be8 <Gets+0x3d>
  401be3:	83 f8 0a             	cmp    $0xa,%eax
  401be6:	75 d9                	jne    401bc1 <Gets+0x16>
  401be8:	c6 03 00             	movb   $0x0,(%rbx)
  401beb:	b8 00 00 00 00       	mov    $0x0,%eax
  401bf0:	e8 6e ff ff ff       	callq  401b63 <save_term>
  401bf5:	4c 89 e0             	mov    %r12,%rax
  401bf8:	5b                   	pop    %rbx
  401bf9:	5d                   	pop    %rbp
  401bfa:	41 5c                	pop    %r12
  401bfc:	c3                   	retq   

0000000000401bfd <notify_server>:
  401bfd:	53                   	push   %rbx
  401bfe:	48 81 ec 10 40 00 00 	sub    $0x4010,%rsp
  401c05:	64 48 8b 04 25 28 00 	mov    %fs:0x28,%rax
  401c0c:	00 00 
  401c0e:	48 89 84 24 08 40 00 	mov    %rax,0x4008(%rsp)
  401c15:	00 
  401c16:	31 c0                	xor    %eax,%eax
  401c18:	83 3d 09 39 20 00 00 	cmpl   $0x0,0x203909(%rip)        # 605528 <is_checker>
  401c1f:	0f 85 aa 01 00 00    	jne    401dcf <notify_server+0x1d2>
  401c25:	89 fb                	mov    %edi,%ebx
  401c27:	8b 05 17 45 20 00    	mov    0x204517(%rip),%eax        # 606144 <gets_cnt>
  401c2d:	83 c0 64             	add    $0x64,%eax
  401c30:	3d 00 20 00 00       	cmp    $0x2000,%eax
  401c35:	7e 1e                	jle    401c55 <notify_server+0x58>
  401c37:	be 28 35 40 00       	mov    $0x403528,%esi
  401c3c:	bf 01 00 00 00       	mov    $0x1,%edi
  401c41:	b8 00 00 00 00       	mov    $0x0,%eax
  401c46:	e8 b5 f1 ff ff       	callq  400e00 <__printf_chk@plt>
  401c4b:	bf 01 00 00 00       	mov    $0x1,%edi
  401c50:	e8 fb f1 ff ff       	callq  400e50 <exit@plt>
  401c55:	0f be 05 ec 44 20 00 	movsbl 0x2044ec(%rip),%eax        # 606148 <target_prefix>
  401c5c:	83 3d 45 38 20 00 00 	cmpl   $0x0,0x203845(%rip)        # 6054a8 <notify>
  401c63:	74 08                	je     401c6d <notify_server+0x70>
  401c65:	8b 15 b5 38 20 00    	mov    0x2038b5(%rip),%edx        # 605520 <authkey>
  401c6b:	eb 05                	jmp    401c72 <notify_server+0x75>
  401c6d:	ba ff ff ff ff       	mov    $0xffffffff,%edx
  401c72:	85 db                	test   %ebx,%ebx
  401c74:	74 08                	je     401c7e <notify_server+0x81>
  401c76:	41 b9 09 34 40 00    	mov    $0x403409,%r9d
  401c7c:	eb 06                	jmp    401c84 <notify_server+0x87>
  401c7e:	41 b9 0e 34 40 00    	mov    $0x40340e,%r9d
  401c84:	68 40 55 60 00       	pushq  $0x605540
  401c89:	56                   	push   %rsi
  401c8a:	50                   	push   %rax
  401c8b:	52                   	push   %rdx
  401c8c:	44 8b 05 d5 34 20 00 	mov    0x2034d5(%rip),%r8d        # 605168 <target_id>
  401c93:	b9 13 34 40 00       	mov    $0x403413,%ecx
  401c98:	ba 00 20 00 00       	mov    $0x2000,%edx
  401c9d:	be 01 00 00 00       	mov    $0x1,%esi
  401ca2:	48 8d 7c 24 20       	lea    0x20(%rsp),%rdi
  401ca7:	b8 00 00 00 00       	mov    $0x0,%eax
  401cac:	e8 cf f1 ff ff       	callq  400e80 <__sprintf_chk@plt>
  401cb1:	48 83 c4 20          	add    $0x20,%rsp
  401cb5:	83 3d ec 37 20 00 00 	cmpl   $0x0,0x2037ec(%rip)        # 6054a8 <notify>
  401cbc:	0f 84 81 00 00 00    	je     401d43 <notify_server+0x146>
  401cc2:	85 db                	test   %ebx,%ebx
  401cc4:	74 6e                	je     401d34 <notify_server+0x137>
  401cc6:	4c 8d 8c 24 00 20 00 	lea    0x2000(%rsp),%r9
  401ccd:	00 
  401cce:	41 b8 00 00 00 00    	mov    $0x0,%r8d
  401cd4:	48 89 e1             	mov    %rsp,%rcx
  401cd7:	48 8b 15 92 34 20 00 	mov    0x203492(%rip),%rdx        # 605170 <lab>
  401cde:	48 8b 35 93 34 20 00 	mov    0x203493(%rip),%rsi        # 605178 <course>
  401ce5:	48 8b 3d 74 34 20 00 	mov    0x203474(%rip),%rdi        # 605160 <user_id>
  401cec:	e8 ef 10 00 00       	callq  402de0 <driver_post>
  401cf1:	85 c0                	test   %eax,%eax
  401cf3:	79 26                	jns    401d1b <notify_server+0x11e>
  401cf5:	48 8d 94 24 00 20 00 	lea    0x2000(%rsp),%rdx
  401cfc:	00 
  401cfd:	be 2f 34 40 00       	mov    $0x40342f,%esi
  401d02:	bf 01 00 00 00       	mov    $0x1,%edi
  401d07:	b8 00 00 00 00       	mov    $0x0,%eax
  401d0c:	e8 ef f0 ff ff       	callq  400e00 <__printf_chk@plt>
  401d11:	bf 01 00 00 00       	mov    $0x1,%edi
  401d16:	e8 35 f1 ff ff       	callq  400e50 <exit@plt>
  401d1b:	bf 58 35 40 00       	mov    $0x403558,%edi
  401d20:	e8 ab ef ff ff       	callq  400cd0 <puts@plt>
  401d25:	bf 3b 34 40 00       	mov    $0x40343b,%edi
  401d2a:	e8 a1 ef ff ff       	callq  400cd0 <puts@plt>
  401d2f:	e9 9b 00 00 00       	jmpq   401dcf <notify_server+0x1d2>
  401d34:	bf 45 34 40 00       	mov    $0x403445,%edi
  401d39:	e8 92 ef ff ff       	callq  400cd0 <puts@plt>
  401d3e:	e9 8c 00 00 00       	jmpq   401dcf <notify_server+0x1d2>
  401d43:	85 db                	test   %ebx,%ebx
  401d45:	74 07                	je     401d4e <notify_server+0x151>
  401d47:	ba 09 34 40 00       	mov    $0x403409,%edx
  401d4c:	eb 05                	jmp    401d53 <notify_server+0x156>
  401d4e:	ba 0e 34 40 00       	mov    $0x40340e,%edx
  401d53:	be 90 35 40 00       	mov    $0x403590,%esi
  401d58:	bf 01 00 00 00       	mov    $0x1,%edi
  401d5d:	b8 00 00 00 00       	mov    $0x0,%eax
  401d62:	e8 99 f0 ff ff       	callq  400e00 <__printf_chk@plt>
  401d67:	48 8b 15 f2 33 20 00 	mov    0x2033f2(%rip),%rdx        # 605160 <user_id>
  401d6e:	be 4c 34 40 00       	mov    $0x40344c,%esi
  401d73:	bf 01 00 00 00       	mov    $0x1,%edi
  401d78:	b8 00 00 00 00       	mov    $0x0,%eax
  401d7d:	e8 7e f0 ff ff       	callq  400e00 <__printf_chk@plt>
  401d82:	48 8b 15 ef 33 20 00 	mov    0x2033ef(%rip),%rdx        # 605178 <course>
  401d89:	be 59 34 40 00       	mov    $0x403459,%esi
  401d8e:	bf 01 00 00 00       	mov    $0x1,%edi
  401d93:	b8 00 00 00 00       	mov    $0x0,%eax
  401d98:	e8 63 f0 ff ff       	callq  400e00 <__printf_chk@plt>
  401d9d:	48 8b 15 cc 33 20 00 	mov    0x2033cc(%rip),%rdx        # 605170 <lab>
  401da4:	be 65 34 40 00       	mov    $0x403465,%esi
  401da9:	bf 01 00 00 00       	mov    $0x1,%edi
  401dae:	b8 00 00 00 00       	mov    $0x0,%eax
  401db3:	e8 48 f0 ff ff       	callq  400e00 <__printf_chk@plt>
  401db8:	48 89 e2             	mov    %rsp,%rdx
  401dbb:	be 6e 34 40 00       	mov    $0x40346e,%esi
  401dc0:	bf 01 00 00 00       	mov    $0x1,%edi
  401dc5:	b8 00 00 00 00       	mov    $0x0,%eax
  401dca:	e8 31 f0 ff ff       	callq  400e00 <__printf_chk@plt>
  401dcf:	48 8b 84 24 08 40 00 	mov    0x4008(%rsp),%rax
  401dd6:	00 
  401dd7:	64 48 33 04 25 28 00 	xor    %fs:0x28,%rax
  401dde:	00 00 
  401de0:	74 05                	je     401de7 <notify_server+0x1ea>
  401de2:	e8 09 ef ff ff       	callq  400cf0 <__stack_chk_fail@plt>
  401de7:	48 81 c4 10 40 00 00 	add    $0x4010,%rsp
  401dee:	5b                   	pop    %rbx
  401def:	c3                   	retq   

0000000000401df0 <validate>:
  401df0:	53                   	push   %rbx
  401df1:	89 fb                	mov    %edi,%ebx
  401df3:	83 3d 2e 37 20 00 00 	cmpl   $0x0,0x20372e(%rip)        # 605528 <is_checker>
  401dfa:	74 6b                	je     401e67 <validate+0x77>
  401dfc:	39 3d 1a 37 20 00    	cmp    %edi,0x20371a(%rip)        # 60551c <vlevel>
  401e02:	74 14                	je     401e18 <validate+0x28>
  401e04:	bf 7a 34 40 00       	mov    $0x40347a,%edi
  401e09:	e8 c2 ee ff ff       	callq  400cd0 <puts@plt>
  401e0e:	b8 00 00 00 00       	mov    $0x0,%eax
  401e13:	e8 5e fd ff ff       	callq  401b76 <check_fail>
  401e18:	8b 15 fa 36 20 00    	mov    0x2036fa(%rip),%edx        # 605518 <check_level>
  401e1e:	39 d7                	cmp    %edx,%edi
  401e20:	74 20                	je     401e42 <validate+0x52>
  401e22:	89 f9                	mov    %edi,%ecx
  401e24:	be b8 35 40 00       	mov    $0x4035b8,%esi
  401e29:	bf 01 00 00 00       	mov    $0x1,%edi
  401e2e:	b8 00 00 00 00       	mov    $0x0,%eax
  401e33:	e8 c8 ef ff ff       	callq  400e00 <__printf_chk@plt>
  401e38:	b8 00 00 00 00       	mov    $0x0,%eax
  401e3d:	e8 34 fd ff ff       	callq  401b76 <check_fail>
  401e42:	0f be 15 ff 42 20 00 	movsbl 0x2042ff(%rip),%edx        # 606148 <target_prefix>
  401e49:	41 b8 40 55 60 00    	mov    $0x605540,%r8d
  401e4f:	89 f9                	mov    %edi,%ecx
  401e51:	be 98 34 40 00       	mov    $0x403498,%esi
  401e56:	bf 01 00 00 00       	mov    $0x1,%edi
  401e5b:	b8 00 00 00 00       	mov    $0x0,%eax
  401e60:	e8 9b ef ff ff       	callq  400e00 <__printf_chk@plt>
  401e65:	eb 49                	jmp    401eb0 <validate+0xc0>
  401e67:	3b 3d af 36 20 00    	cmp    0x2036af(%rip),%edi        # 60551c <vlevel>
  401e6d:	74 18                	je     401e87 <validate+0x97>
  401e6f:	bf 7a 34 40 00       	mov    $0x40347a,%edi
  401e74:	e8 57 ee ff ff       	callq  400cd0 <puts@plt>
  401e79:	89 de                	mov    %ebx,%esi
  401e7b:	bf 00 00 00 00       	mov    $0x0,%edi
  401e80:	e8 78 fd ff ff       	callq  401bfd <notify_server>
  401e85:	eb 29                	jmp    401eb0 <validate+0xc0>
  401e87:	0f be 0d ba 42 20 00 	movsbl 0x2042ba(%rip),%ecx        # 606148 <target_prefix>
  401e8e:	89 fa                	mov    %edi,%edx
  401e90:	be e0 35 40 00       	mov    $0x4035e0,%esi
  401e95:	bf 01 00 00 00       	mov    $0x1,%edi
  401e9a:	b8 00 00 00 00       	mov    $0x0,%eax
  401e9f:	e8 5c ef ff ff       	callq  400e00 <__printf_chk@plt>
  401ea4:	89 de                	mov    %ebx,%esi
  401ea6:	bf 01 00 00 00       	mov    $0x1,%edi
  401eab:	e8 4d fd ff ff       	callq  401bfd <notify_server>
  401eb0:	5b                   	pop    %rbx
  401eb1:	c3                   	retq   

0000000000401eb2 <fail>:
  401eb2:	48 83 ec 08          	sub    $0x8,%rsp
  401eb6:	83 3d 6b 36 20 00 00 	cmpl   $0x0,0x20366b(%rip)        # 605528 <is_checker>
  401ebd:	74 0a                	je     401ec9 <fail+0x17>
  401ebf:	b8 00 00 00 00       	mov    $0x0,%eax
  401ec4:	e8 ad fc ff ff       	callq  401b76 <check_fail>
  401ec9:	89 fe                	mov    %edi,%esi
  401ecb:	bf 00 00 00 00       	mov    $0x0,%edi
  401ed0:	e8 28 fd ff ff       	callq  401bfd <notify_server>
  401ed5:	48 83 c4 08          	add    $0x8,%rsp
  401ed9:	c3                   	retq   

0000000000401eda <bushandler>:
  401eda:	48 83 ec 08          	sub    $0x8,%rsp
  401ede:	83 3d 43 36 20 00 00 	cmpl   $0x0,0x203643(%rip)        # 605528 <is_checker>
  401ee5:	74 14                	je     401efb <bushandler+0x21>
  401ee7:	bf ad 34 40 00       	mov    $0x4034ad,%edi
  401eec:	e8 df ed ff ff       	callq  400cd0 <puts@plt>
  401ef1:	b8 00 00 00 00       	mov    $0x0,%eax
  401ef6:	e8 7b fc ff ff       	callq  401b76 <check_fail>
  401efb:	bf 18 36 40 00       	mov    $0x403618,%edi
  401f00:	e8 cb ed ff ff       	callq  400cd0 <puts@plt>
  401f05:	bf b7 34 40 00       	mov    $0x4034b7,%edi
  401f0a:	e8 c1 ed ff ff       	callq  400cd0 <puts@plt>
  401f0f:	be 00 00 00 00       	mov    $0x0,%esi
  401f14:	bf 00 00 00 00       	mov    $0x0,%edi
  401f19:	e8 df fc ff ff       	callq  401bfd <notify_server>
  401f1e:	bf 01 00 00 00       	mov    $0x1,%edi
  401f23:	e8 28 ef ff ff       	callq  400e50 <exit@plt>

0000000000401f28 <seghandler>:
  401f28:	48 83 ec 08          	sub    $0x8,%rsp
  401f2c:	83 3d f5 35 20 00 00 	cmpl   $0x0,0x2035f5(%rip)        # 605528 <is_checker>
  401f33:	74 14                	je     401f49 <seghandler+0x21>
  401f35:	bf cd 34 40 00       	mov    $0x4034cd,%edi
  401f3a:	e8 91 ed ff ff       	callq  400cd0 <puts@plt>
  401f3f:	b8 00 00 00 00       	mov    $0x0,%eax
  401f44:	e8 2d fc ff ff       	callq  401b76 <check_fail>
  401f49:	bf 38 36 40 00       	mov    $0x403638,%edi
  401f4e:	e8 7d ed ff ff       	callq  400cd0 <puts@plt>
  401f53:	bf b7 34 40 00       	mov    $0x4034b7,%edi
  401f58:	e8 73 ed ff ff       	callq  400cd0 <puts@plt>
  401f5d:	be 00 00 00 00       	mov    $0x0,%esi
  401f62:	bf 00 00 00 00       	mov    $0x0,%edi
  401f67:	e8 91 fc ff ff       	callq  401bfd <notify_server>
  401f6c:	bf 01 00 00 00       	mov    $0x1,%edi
  401f71:	e8 da ee ff ff       	callq  400e50 <exit@plt>

0000000000401f76 <illegalhandler>:
  401f76:	48 83 ec 08          	sub    $0x8,%rsp
  401f7a:	83 3d a7 35 20 00 00 	cmpl   $0x0,0x2035a7(%rip)        # 605528 <is_checker>
  401f81:	74 14                	je     401f97 <illegalhandler+0x21>
  401f83:	bf e0 34 40 00       	mov    $0x4034e0,%edi
  401f88:	e8 43 ed ff ff       	callq  400cd0 <puts@plt>
  401f8d:	b8 00 00 00 00       	mov    $0x0,%eax
  401f92:	e8 df fb ff ff       	callq  401b76 <check_fail>
  401f97:	bf 60 36 40 00       	mov    $0x403660,%edi
  401f9c:	e8 2f ed ff ff       	callq  400cd0 <puts@plt>
  401fa1:	bf b7 34 40 00       	mov    $0x4034b7,%edi
  401fa6:	e8 25 ed ff ff       	callq  400cd0 <puts@plt>
  401fab:	be 00 00 00 00       	mov    $0x0,%esi
  401fb0:	bf 00 00 00 00       	mov    $0x0,%edi
  401fb5:	e8 43 fc ff ff       	callq  401bfd <notify_server>
  401fba:	bf 01 00 00 00       	mov    $0x1,%edi
  401fbf:	e8 8c ee ff ff       	callq  400e50 <exit@plt>

0000000000401fc4 <sigalrmhandler>:
  401fc4:	48 83 ec 08          	sub    $0x8,%rsp
  401fc8:	83 3d 59 35 20 00 00 	cmpl   $0x0,0x203559(%rip)        # 605528 <is_checker>
  401fcf:	74 14                	je     401fe5 <sigalrmhandler+0x21>
  401fd1:	bf f4 34 40 00       	mov    $0x4034f4,%edi
  401fd6:	e8 f5 ec ff ff       	callq  400cd0 <puts@plt>
  401fdb:	b8 00 00 00 00       	mov    $0x0,%eax
  401fe0:	e8 91 fb ff ff       	callq  401b76 <check_fail>
  401fe5:	ba 05 00 00 00       	mov    $0x5,%edx
  401fea:	be 90 36 40 00       	mov    $0x403690,%esi
  401fef:	bf 01 00 00 00       	mov    $0x1,%edi
  401ff4:	b8 00 00 00 00       	mov    $0x0,%eax
  401ff9:	e8 02 ee ff ff       	callq  400e00 <__printf_chk@plt>
  401ffe:	be 00 00 00 00       	mov    $0x0,%esi
  402003:	bf 00 00 00 00       	mov    $0x0,%edi
  402008:	e8 f0 fb ff ff       	callq  401bfd <notify_server>
  40200d:	bf 01 00 00 00       	mov    $0x1,%edi
  402012:	e8 39 ee ff ff       	callq  400e50 <exit@plt>

0000000000402017 <launch>:
  402017:	55                   	push   %rbp
  402018:	48 89 e5             	mov    %rsp,%rbp
  40201b:	48 83 ec 10          	sub    $0x10,%rsp
  40201f:	48 89 fa             	mov    %rdi,%rdx
  402022:	64 48 8b 04 25 28 00 	mov    %fs:0x28,%rax
  402029:	00 00 
  40202b:	48 89 45 f8          	mov    %rax,-0x8(%rbp)
  40202f:	31 c0                	xor    %eax,%eax
  402031:	48 8d 47 1e          	lea    0x1e(%rdi),%rax
  402035:	48 83 e0 f0          	and    $0xfffffffffffffff0,%rax
  402039:	48 29 c4             	sub    %rax,%rsp
  40203c:	48 8d 7c 24 0f       	lea    0xf(%rsp),%rdi
  402041:	48 83 e7 f0          	and    $0xfffffffffffffff0,%rdi
  402045:	be f4 00 00 00       	mov    $0xf4,%esi
  40204a:	e8 c1 ec ff ff       	callq  400d10 <memset@plt>
  40204f:	48 8b 05 6a 34 20 00 	mov    0x20346a(%rip),%rax        # 6054c0 <stdin@@GLIBC_2.2.5>
  402056:	48 39 05 b3 34 20 00 	cmp    %rax,0x2034b3(%rip)        # 605510 <infile>
  40205d:	75 14                	jne    402073 <launch+0x5c>
  40205f:	be fc 34 40 00       	mov    $0x4034fc,%esi
  402064:	bf 01 00 00 00       	mov    $0x1,%edi
  402069:	b8 00 00 00 00       	mov    $0x0,%eax
  40206e:	e8 8d ed ff ff       	callq  400e00 <__printf_chk@plt>
  402073:	c7 05 9f 34 20 00 00 	movl   $0x0,0x20349f(%rip)        # 60551c <vlevel>
  40207a:	00 00 00 
  40207d:	b8 00 00 00 00       	mov    $0x0,%eax
  402082:	e8 5b fa ff ff       	callq  401ae2 <test>
  402087:	83 3d 9a 34 20 00 00 	cmpl   $0x0,0x20349a(%rip)        # 605528 <is_checker>
  40208e:	74 14                	je     4020a4 <launch+0x8d>
  402090:	bf 09 35 40 00       	mov    $0x403509,%edi
  402095:	e8 36 ec ff ff       	callq  400cd0 <puts@plt>
  40209a:	b8 00 00 00 00       	mov    $0x0,%eax
  40209f:	e8 d2 fa ff ff       	callq  401b76 <check_fail>
  4020a4:	bf 14 35 40 00       	mov    $0x403514,%edi
  4020a9:	e8 22 ec ff ff       	callq  400cd0 <puts@plt>
  4020ae:	48 8b 45 f8          	mov    -0x8(%rbp),%rax
  4020b2:	64 48 33 04 25 28 00 	xor    %fs:0x28,%rax
  4020b9:	00 00 
  4020bb:	74 05                	je     4020c2 <launch+0xab>
  4020bd:	e8 2e ec ff ff       	callq  400cf0 <__stack_chk_fail@plt>
  4020c2:	c9                   	leaveq 
  4020c3:	c3                   	retq   

00000000004020c4 <stable_launch>:
  4020c4:	53                   	push   %rbx
  4020c5:	48 89 3d 3c 34 20 00 	mov    %rdi,0x20343c(%rip)        # 605508 <global_offset>
  4020cc:	41 b9 00 00 00 00    	mov    $0x0,%r9d
  4020d2:	41 b8 00 00 00 00    	mov    $0x0,%r8d
  4020d8:	b9 32 01 00 00       	mov    $0x132,%ecx
  4020dd:	ba 07 00 00 00       	mov    $0x7,%edx
  4020e2:	be 00 00 10 00       	mov    $0x100000,%esi
  4020e7:	bf 00 60 58 55       	mov    $0x55586000,%edi
  4020ec:	e8 0f ec ff ff       	callq  400d00 <mmap@plt>
  4020f1:	48 89 c3             	mov    %rax,%rbx
  4020f4:	48 3d 00 60 58 55    	cmp    $0x55586000,%rax
  4020fa:	74 37                	je     402133 <stable_launch+0x6f>
  4020fc:	be 00 00 10 00       	mov    $0x100000,%esi
  402101:	48 89 c7             	mov    %rax,%rdi
  402104:	e8 e7 ec ff ff       	callq  400df0 <munmap@plt>
  402109:	b9 00 60 58 55       	mov    $0x55586000,%ecx
  40210e:	ba c8 36 40 00       	mov    $0x4036c8,%edx
  402113:	be 01 00 00 00       	mov    $0x1,%esi
  402118:	48 8b 3d c1 33 20 00 	mov    0x2033c1(%rip),%rdi        # 6054e0 <stderr@@GLIBC_2.2.5>
  40211f:	b8 00 00 00 00       	mov    $0x0,%eax
  402124:	e8 47 ed ff ff       	callq  400e70 <__fprintf_chk@plt>
  402129:	bf 01 00 00 00       	mov    $0x1,%edi
  40212e:	e8 1d ed ff ff       	callq  400e50 <exit@plt>
  402133:	48 8d 90 f8 ff 0f 00 	lea    0xffff8(%rax),%rdx
  40213a:	48 89 15 0f 40 20 00 	mov    %rdx,0x20400f(%rip)        # 606150 <stack_top>
  402141:	48 89 e0             	mov    %rsp,%rax
  402144:	48 89 d4             	mov    %rdx,%rsp
  402147:	48 89 c2             	mov    %rax,%rdx
  40214a:	48 89 15 af 33 20 00 	mov    %rdx,0x2033af(%rip)        # 605500 <global_save_stack>
  402151:	48 8b 3d b0 33 20 00 	mov    0x2033b0(%rip),%rdi        # 605508 <global_offset>
  402158:	e8 ba fe ff ff       	callq  402017 <launch>
  40215d:	48 8b 05 9c 33 20 00 	mov    0x20339c(%rip),%rax        # 605500 <global_save_stack>
  402164:	48 89 c4             	mov    %rax,%rsp
  402167:	be 00 00 10 00       	mov    $0x100000,%esi
  40216c:	48 89 df             	mov    %rbx,%rdi
  40216f:	e8 7c ec ff ff       	callq  400df0 <munmap@plt>
  402174:	5b                   	pop    %rbx
  402175:	c3                   	retq   

0000000000402176 <rio_readinitb>:
  402176:	89 37                	mov    %esi,(%rdi)
  402178:	c7 47 04 00 00 00 00 	movl   $0x0,0x4(%rdi)
  40217f:	48 8d 47 10          	lea    0x10(%rdi),%rax
  402183:	48 89 47 08          	mov    %rax,0x8(%rdi)
  402187:	c3                   	retq   

0000000000402188 <sigalrm_handler>:
  402188:	48 83 ec 08          	sub    $0x8,%rsp
  40218c:	b9 00 00 00 00       	mov    $0x0,%ecx
  402191:	ba 00 37 40 00       	mov    $0x403700,%edx
  402196:	be 01 00 00 00       	mov    $0x1,%esi
  40219b:	48 8b 3d 3e 33 20 00 	mov    0x20333e(%rip),%rdi        # 6054e0 <stderr@@GLIBC_2.2.5>
  4021a2:	b8 00 00 00 00       	mov    $0x0,%eax
  4021a7:	e8 c4 ec ff ff       	callq  400e70 <__fprintf_chk@plt>
  4021ac:	bf 01 00 00 00       	mov    $0x1,%edi
  4021b1:	e8 9a ec ff ff       	callq  400e50 <exit@plt>

00000000004021b6 <rio_writen>:
  4021b6:	41 55                	push   %r13
  4021b8:	41 54                	push   %r12
  4021ba:	55                   	push   %rbp
  4021bb:	53                   	push   %rbx
  4021bc:	48 83 ec 08          	sub    $0x8,%rsp
  4021c0:	41 89 fc             	mov    %edi,%r12d
  4021c3:	48 89 f5             	mov    %rsi,%rbp
  4021c6:	49 89 d5             	mov    %rdx,%r13
  4021c9:	48 89 d3             	mov    %rdx,%rbx
  4021cc:	eb 28                	jmp    4021f6 <rio_writen+0x40>
  4021ce:	48 89 da             	mov    %rbx,%rdx
  4021d1:	48 89 ee             	mov    %rbp,%rsi
  4021d4:	44 89 e7             	mov    %r12d,%edi
  4021d7:	e8 04 eb ff ff       	callq  400ce0 <write@plt>
  4021dc:	48 85 c0             	test   %rax,%rax
  4021df:	7f 0f                	jg     4021f0 <rio_writen+0x3a>
  4021e1:	e8 aa ea ff ff       	callq  400c90 <__errno_location@plt>
  4021e6:	83 38 04             	cmpl   $0x4,(%rax)
  4021e9:	75 15                	jne    402200 <rio_writen+0x4a>
  4021eb:	b8 00 00 00 00       	mov    $0x0,%eax
  4021f0:	48 29 c3             	sub    %rax,%rbx
  4021f3:	48 01 c5             	add    %rax,%rbp
  4021f6:	48 85 db             	test   %rbx,%rbx
  4021f9:	75 d3                	jne    4021ce <rio_writen+0x18>
  4021fb:	4c 89 e8             	mov    %r13,%rax
  4021fe:	eb 07                	jmp    402207 <rio_writen+0x51>
  402200:	48 c7 c0 ff ff ff ff 	mov    $0xffffffffffffffff,%rax
  402207:	48 83 c4 08          	add    $0x8,%rsp
  40220b:	5b                   	pop    %rbx
  40220c:	5d                   	pop    %rbp
  40220d:	41 5c                	pop    %r12
  40220f:	41 5d                	pop    %r13
  402211:	c3                   	retq   

0000000000402212 <rio_read>:
  402212:	41 55                	push   %r13
  402214:	41 54                	push   %r12
  402216:	55                   	push   %rbp
  402217:	53                   	push   %rbx
  402218:	48 83 ec 08          	sub    $0x8,%rsp
  40221c:	48 89 fb             	mov    %rdi,%rbx
  40221f:	49 89 f5             	mov    %rsi,%r13
  402222:	49 89 d4             	mov    %rdx,%r12
  402225:	eb 2e                	jmp    402255 <rio_read+0x43>
  402227:	48 8d 6b 10          	lea    0x10(%rbx),%rbp
  40222b:	8b 3b                	mov    (%rbx),%edi
  40222d:	ba 00 20 00 00       	mov    $0x2000,%edx
  402232:	48 89 ee             	mov    %rbp,%rsi
  402235:	e8 06 eb ff ff       	callq  400d40 <read@plt>
  40223a:	89 43 04             	mov    %eax,0x4(%rbx)
  40223d:	85 c0                	test   %eax,%eax
  40223f:	79 0c                	jns    40224d <rio_read+0x3b>
  402241:	e8 4a ea ff ff       	callq  400c90 <__errno_location@plt>
  402246:	83 38 04             	cmpl   $0x4,(%rax)
  402249:	74 0a                	je     402255 <rio_read+0x43>
  40224b:	eb 37                	jmp    402284 <rio_read+0x72>
  40224d:	85 c0                	test   %eax,%eax
  40224f:	74 3c                	je     40228d <rio_read+0x7b>
  402251:	48 89 6b 08          	mov    %rbp,0x8(%rbx)
  402255:	8b 6b 04             	mov    0x4(%rbx),%ebp
  402258:	85 ed                	test   %ebp,%ebp
  40225a:	7e cb                	jle    402227 <rio_read+0x15>
  40225c:	89 e8                	mov    %ebp,%eax
  40225e:	49 39 c4             	cmp    %rax,%r12
  402261:	77 03                	ja     402266 <rio_read+0x54>
  402263:	44 89 e5             	mov    %r12d,%ebp
  402266:	4c 63 e5             	movslq %ebp,%r12
  402269:	48 8b 73 08          	mov    0x8(%rbx),%rsi
  40226d:	4c 89 e2             	mov    %r12,%rdx
  402270:	4c 89 ef             	mov    %r13,%rdi
  402273:	e8 28 eb ff ff       	callq  400da0 <memcpy@plt>
  402278:	4c 01 63 08          	add    %r12,0x8(%rbx)
  40227c:	29 6b 04             	sub    %ebp,0x4(%rbx)
  40227f:	4c 89 e0             	mov    %r12,%rax
  402282:	eb 0e                	jmp    402292 <rio_read+0x80>
  402284:	48 c7 c0 ff ff ff ff 	mov    $0xffffffffffffffff,%rax
  40228b:	eb 05                	jmp    402292 <rio_read+0x80>
  40228d:	b8 00 00 00 00       	mov    $0x0,%eax
  402292:	48 83 c4 08          	add    $0x8,%rsp
  402296:	5b                   	pop    %rbx
  402297:	5d                   	pop    %rbp
  402298:	41 5c                	pop    %r12
  40229a:	41 5d                	pop    %r13
  40229c:	c3                   	retq   

000000000040229d <rio_readlineb>:
  40229d:	41 55                	push   %r13
  40229f:	41 54                	push   %r12
  4022a1:	55                   	push   %rbp
  4022a2:	53                   	push   %rbx
  4022a3:	48 83 ec 18          	sub    $0x18,%rsp
  4022a7:	49 89 fd             	mov    %rdi,%r13
  4022aa:	48 89 f5             	mov    %rsi,%rbp
  4022ad:	49 89 d4             	mov    %rdx,%r12
  4022b0:	64 48 8b 04 25 28 00 	mov    %fs:0x28,%rax
  4022b7:	00 00 
  4022b9:	48 89 44 24 08       	mov    %rax,0x8(%rsp)
  4022be:	31 c0                	xor    %eax,%eax
  4022c0:	bb 01 00 00 00       	mov    $0x1,%ebx
  4022c5:	eb 3f                	jmp    402306 <rio_readlineb+0x69>
  4022c7:	ba 01 00 00 00       	mov    $0x1,%edx
  4022cc:	48 8d 74 24 07       	lea    0x7(%rsp),%rsi
  4022d1:	4c 89 ef             	mov    %r13,%rdi
  4022d4:	e8 39 ff ff ff       	callq  402212 <rio_read>
  4022d9:	83 f8 01             	cmp    $0x1,%eax
  4022dc:	75 15                	jne    4022f3 <rio_readlineb+0x56>
  4022de:	48 8d 45 01          	lea    0x1(%rbp),%rax
  4022e2:	0f b6 54 24 07       	movzbl 0x7(%rsp),%edx
  4022e7:	88 55 00             	mov    %dl,0x0(%rbp)
  4022ea:	80 7c 24 07 0a       	cmpb   $0xa,0x7(%rsp)
  4022ef:	75 0e                	jne    4022ff <rio_readlineb+0x62>
  4022f1:	eb 1a                	jmp    40230d <rio_readlineb+0x70>
  4022f3:	85 c0                	test   %eax,%eax
  4022f5:	75 22                	jne    402319 <rio_readlineb+0x7c>
  4022f7:	48 83 fb 01          	cmp    $0x1,%rbx
  4022fb:	75 13                	jne    402310 <rio_readlineb+0x73>
  4022fd:	eb 23                	jmp    402322 <rio_readlineb+0x85>
  4022ff:	48 83 c3 01          	add    $0x1,%rbx
  402303:	48 89 c5             	mov    %rax,%rbp
  402306:	4c 39 e3             	cmp    %r12,%rbx
  402309:	72 bc                	jb     4022c7 <rio_readlineb+0x2a>
  40230b:	eb 03                	jmp    402310 <rio_readlineb+0x73>
  40230d:	48 89 c5             	mov    %rax,%rbp
  402310:	c6 45 00 00          	movb   $0x0,0x0(%rbp)
  402314:	48 89 d8             	mov    %rbx,%rax
  402317:	eb 0e                	jmp    402327 <rio_readlineb+0x8a>
  402319:	48 c7 c0 ff ff ff ff 	mov    $0xffffffffffffffff,%rax
  402320:	eb 05                	jmp    402327 <rio_readlineb+0x8a>
  402322:	b8 00 00 00 00       	mov    $0x0,%eax
  402327:	48 8b 4c 24 08       	mov    0x8(%rsp),%rcx
  40232c:	64 48 33 0c 25 28 00 	xor    %fs:0x28,%rcx
  402333:	00 00 
  402335:	74 05                	je     40233c <rio_readlineb+0x9f>
  402337:	e8 b4 e9 ff ff       	callq  400cf0 <__stack_chk_fail@plt>
  40233c:	48 83 c4 18          	add    $0x18,%rsp
  402340:	5b                   	pop    %rbx
  402341:	5d                   	pop    %rbp
  402342:	41 5c                	pop    %r12
  402344:	41 5d                	pop    %r13
  402346:	c3                   	retq   

0000000000402347 <urlencode>:
  402347:	41 54                	push   %r12
  402349:	55                   	push   %rbp
  40234a:	53                   	push   %rbx
  40234b:	48 83 ec 10          	sub    $0x10,%rsp
  40234f:	48 89 fb             	mov    %rdi,%rbx
  402352:	48 89 f5             	mov    %rsi,%rbp
  402355:	64 48 8b 04 25 28 00 	mov    %fs:0x28,%rax
  40235c:	00 00 
  40235e:	48 89 44 24 08       	mov    %rax,0x8(%rsp)
  402363:	31 c0                	xor    %eax,%eax
  402365:	48 c7 c1 ff ff ff ff 	mov    $0xffffffffffffffff,%rcx
  40236c:	f2 ae                	repnz scas %es:(%rdi),%al
  40236e:	48 f7 d1             	not    %rcx
  402371:	8d 41 ff             	lea    -0x1(%rcx),%eax
  402374:	e9 aa 00 00 00       	jmpq   402423 <urlencode+0xdc>
  402379:	44 0f b6 03          	movzbl (%rbx),%r8d
  40237d:	41 80 f8 2a          	cmp    $0x2a,%r8b
  402381:	0f 94 c2             	sete   %dl
  402384:	41 80 f8 2d          	cmp    $0x2d,%r8b
  402388:	0f 94 c0             	sete   %al
  40238b:	08 c2                	or     %al,%dl
  40238d:	75 24                	jne    4023b3 <urlencode+0x6c>
  40238f:	41 80 f8 2e          	cmp    $0x2e,%r8b
  402393:	74 1e                	je     4023b3 <urlencode+0x6c>
  402395:	41 80 f8 5f          	cmp    $0x5f,%r8b
  402399:	74 18                	je     4023b3 <urlencode+0x6c>
  40239b:	41 8d 40 d0          	lea    -0x30(%r8),%eax
  40239f:	3c 09                	cmp    $0x9,%al
  4023a1:	76 10                	jbe    4023b3 <urlencode+0x6c>
  4023a3:	41 8d 40 bf          	lea    -0x41(%r8),%eax
  4023a7:	3c 19                	cmp    $0x19,%al
  4023a9:	76 08                	jbe    4023b3 <urlencode+0x6c>
  4023ab:	41 8d 40 9f          	lea    -0x61(%r8),%eax
  4023af:	3c 19                	cmp    $0x19,%al
  4023b1:	77 0a                	ja     4023bd <urlencode+0x76>
  4023b3:	44 88 45 00          	mov    %r8b,0x0(%rbp)
  4023b7:	48 8d 6d 01          	lea    0x1(%rbp),%rbp
  4023bb:	eb 5f                	jmp    40241c <urlencode+0xd5>
  4023bd:	41 80 f8 20          	cmp    $0x20,%r8b
  4023c1:	75 0a                	jne    4023cd <urlencode+0x86>
  4023c3:	c6 45 00 2b          	movb   $0x2b,0x0(%rbp)
  4023c7:	48 8d 6d 01          	lea    0x1(%rbp),%rbp
  4023cb:	eb 4f                	jmp    40241c <urlencode+0xd5>
  4023cd:	41 8d 40 e0          	lea    -0x20(%r8),%eax
  4023d1:	3c 5f                	cmp    $0x5f,%al
  4023d3:	0f 96 c2             	setbe  %dl
  4023d6:	41 80 f8 09          	cmp    $0x9,%r8b
  4023da:	0f 94 c0             	sete   %al
  4023dd:	08 c2                	or     %al,%dl
  4023df:	74 50                	je     402431 <urlencode+0xea>
  4023e1:	45 0f b6 c0          	movzbl %r8b,%r8d
  4023e5:	b9 98 37 40 00       	mov    $0x403798,%ecx
  4023ea:	ba 08 00 00 00       	mov    $0x8,%edx
  4023ef:	be 01 00 00 00       	mov    $0x1,%esi
  4023f4:	48 89 e7             	mov    %rsp,%rdi
  4023f7:	b8 00 00 00 00       	mov    $0x0,%eax
  4023fc:	e8 7f ea ff ff       	callq  400e80 <__sprintf_chk@plt>
  402401:	0f b6 04 24          	movzbl (%rsp),%eax
  402405:	88 45 00             	mov    %al,0x0(%rbp)
  402408:	0f b6 44 24 01       	movzbl 0x1(%rsp),%eax
  40240d:	88 45 01             	mov    %al,0x1(%rbp)
  402410:	0f b6 44 24 02       	movzbl 0x2(%rsp),%eax
  402415:	88 45 02             	mov    %al,0x2(%rbp)
  402418:	48 8d 6d 03          	lea    0x3(%rbp),%rbp
  40241c:	48 83 c3 01          	add    $0x1,%rbx
  402420:	44 89 e0             	mov    %r12d,%eax
  402423:	44 8d 60 ff          	lea    -0x1(%rax),%r12d
  402427:	85 c0                	test   %eax,%eax
  402429:	0f 85 4a ff ff ff    	jne    402379 <urlencode+0x32>
  40242f:	eb 05                	jmp    402436 <urlencode+0xef>
  402431:	b8 ff ff ff ff       	mov    $0xffffffff,%eax
  402436:	48 8b 74 24 08       	mov    0x8(%rsp),%rsi
  40243b:	64 48 33 34 25 28 00 	xor    %fs:0x28,%rsi
  402442:	00 00 
  402444:	74 05                	je     40244b <urlencode+0x104>
  402446:	e8 a5 e8 ff ff       	callq  400cf0 <__stack_chk_fail@plt>
  40244b:	48 83 c4 10          	add    $0x10,%rsp
  40244f:	5b                   	pop    %rbx
  402450:	5d                   	pop    %rbp
  402451:	41 5c                	pop    %r12
  402453:	c3                   	retq   

0000000000402454 <submitr>:
  402454:	41 57                	push   %r15
  402456:	41 56                	push   %r14
  402458:	41 55                	push   %r13
  40245a:	41 54                	push   %r12
  40245c:	55                   	push   %rbp
  40245d:	53                   	push   %rbx
  40245e:	48 81 ec 58 a0 00 00 	sub    $0xa058,%rsp
  402465:	49 89 fc             	mov    %rdi,%r12
  402468:	89 74 24 04          	mov    %esi,0x4(%rsp)
  40246c:	49 89 d7             	mov    %rdx,%r15
  40246f:	49 89 ce             	mov    %rcx,%r14
  402472:	4c 89 44 24 08       	mov    %r8,0x8(%rsp)
  402477:	4d 89 cd             	mov    %r9,%r13
  40247a:	48 8b 9c 24 90 a0 00 	mov    0xa090(%rsp),%rbx
  402481:	00 
  402482:	64 48 8b 04 25 28 00 	mov    %fs:0x28,%rax
  402489:	00 00 
  40248b:	48 89 84 24 48 a0 00 	mov    %rax,0xa048(%rsp)
  402492:	00 
  402493:	31 c0                	xor    %eax,%eax
  402495:	c7 44 24 1c 00 00 00 	movl   $0x0,0x1c(%rsp)
  40249c:	00 
  40249d:	ba 00 00 00 00       	mov    $0x0,%edx
  4024a2:	be 01 00 00 00       	mov    $0x1,%esi
  4024a7:	bf 02 00 00 00       	mov    $0x2,%edi
  4024ac:	e8 df e9 ff ff       	callq  400e90 <socket@plt>
  4024b1:	85 c0                	test   %eax,%eax
  4024b3:	79 4e                	jns    402503 <submitr+0xaf>
  4024b5:	48 b8 45 72 72 6f 72 	movabs $0x43203a726f727245,%rax
  4024bc:	3a 20 43 
  4024bf:	48 89 03             	mov    %rax,(%rbx)
  4024c2:	48 b8 6c 69 65 6e 74 	movabs $0x6e7520746e65696c,%rax
  4024c9:	20 75 6e 
  4024cc:	48 89 43 08          	mov    %rax,0x8(%rbx)
  4024d0:	48 b8 61 62 6c 65 20 	movabs $0x206f7420656c6261,%rax
  4024d7:	74 6f 20 
  4024da:	48 89 43 10          	mov    %rax,0x10(%rbx)
  4024de:	48 b8 63 72 65 61 74 	movabs $0x7320657461657263,%rax
  4024e5:	65 20 73 
  4024e8:	48 89 43 18          	mov    %rax,0x18(%rbx)
  4024ec:	c7 43 20 6f 63 6b 65 	movl   $0x656b636f,0x20(%rbx)
  4024f3:	66 c7 43 24 74 00    	movw   $0x74,0x24(%rbx)
  4024f9:	b8 ff ff ff ff       	mov    $0xffffffff,%eax
  4024fe:	e9 97 06 00 00       	jmpq   402b9a <submitr+0x746>
  402503:	89 c5                	mov    %eax,%ebp
  402505:	4c 89 e7             	mov    %r12,%rdi
  402508:	e8 63 e8 ff ff       	callq  400d70 <gethostbyname@plt>
  40250d:	48 85 c0             	test   %rax,%rax
  402510:	75 67                	jne    402579 <submitr+0x125>
  402512:	48 b8 45 72 72 6f 72 	movabs $0x44203a726f727245,%rax
  402519:	3a 20 44 
  40251c:	48 89 03             	mov    %rax,(%rbx)
  40251f:	48 b8 4e 53 20 69 73 	movabs $0x6e7520736920534e,%rax
  402526:	20 75 6e 
  402529:	48 89 43 08          	mov    %rax,0x8(%rbx)
  40252d:	48 b8 61 62 6c 65 20 	movabs $0x206f7420656c6261,%rax
  402534:	74 6f 20 
  402537:	48 89 43 10          	mov    %rax,0x10(%rbx)
  40253b:	48 b8 72 65 73 6f 6c 	movabs $0x2065766c6f736572,%rax
  402542:	76 65 20 
  402545:	48 89 43 18          	mov    %rax,0x18(%rbx)
  402549:	48 b8 73 65 72 76 65 	movabs $0x6120726576726573,%rax
  402550:	72 20 61 
  402553:	48 89 43 20          	mov    %rax,0x20(%rbx)
  402557:	c7 43 28 64 64 72 65 	movl   $0x65726464,0x28(%rbx)
  40255e:	66 c7 43 2c 73 73    	movw   $0x7373,0x2c(%rbx)
  402564:	c6 43 2e 00          	movb   $0x0,0x2e(%rbx)
  402568:	89 ef                	mov    %ebp,%edi
  40256a:	e8 c1 e7 ff ff       	callq  400d30 <close@plt>
  40256f:	b8 ff ff ff ff       	mov    $0xffffffff,%eax
  402574:	e9 21 06 00 00       	jmpq   402b9a <submitr+0x746>
  402579:	48 c7 44 24 20 00 00 	movq   $0x0,0x20(%rsp)
  402580:	00 00 
  402582:	48 c7 44 24 28 00 00 	movq   $0x0,0x28(%rsp)
  402589:	00 00 
  40258b:	66 c7 44 24 20 02 00 	movw   $0x2,0x20(%rsp)
  402592:	48 63 50 14          	movslq 0x14(%rax),%rdx
  402596:	48 8b 40 18          	mov    0x18(%rax),%rax
  40259a:	48 8b 30             	mov    (%rax),%rsi
  40259d:	48 8d 7c 24 24       	lea    0x24(%rsp),%rdi
  4025a2:	b9 0c 00 00 00       	mov    $0xc,%ecx
  4025a7:	e8 d4 e7 ff ff       	callq  400d80 <__memmove_chk@plt>
  4025ac:	0f b7 44 24 04       	movzwl 0x4(%rsp),%eax
  4025b1:	66 c1 c8 08          	ror    $0x8,%ax
  4025b5:	66 89 44 24 22       	mov    %ax,0x22(%rsp)
  4025ba:	ba 10 00 00 00       	mov    $0x10,%edx
  4025bf:	48 8d 74 24 20       	lea    0x20(%rsp),%rsi
  4025c4:	89 ef                	mov    %ebp,%edi
  4025c6:	e8 95 e8 ff ff       	callq  400e60 <connect@plt>
  4025cb:	85 c0                	test   %eax,%eax
  4025cd:	79 59                	jns    402628 <submitr+0x1d4>
  4025cf:	48 b8 45 72 72 6f 72 	movabs $0x55203a726f727245,%rax
  4025d6:	3a 20 55 
  4025d9:	48 89 03             	mov    %rax,(%rbx)
  4025dc:	48 b8 6e 61 62 6c 65 	movabs $0x6f7420656c62616e,%rax
  4025e3:	20 74 6f 
  4025e6:	48 89 43 08          	mov    %rax,0x8(%rbx)
  4025ea:	48 b8 20 63 6f 6e 6e 	movabs $0x7463656e6e6f6320,%rax
  4025f1:	65 63 74 
  4025f4:	48 89 43 10          	mov    %rax,0x10(%rbx)
  4025f8:	48 b8 20 74 6f 20 74 	movabs $0x20656874206f7420,%rax
  4025ff:	68 65 20 
  402602:	48 89 43 18          	mov    %rax,0x18(%rbx)
  402606:	c7 43 20 73 65 72 76 	movl   $0x76726573,0x20(%rbx)
  40260d:	66 c7 43 24 65 72    	movw   $0x7265,0x24(%rbx)
  402613:	c6 43 26 00          	movb   $0x0,0x26(%rbx)
  402617:	89 ef                	mov    %ebp,%edi
  402619:	e8 12 e7 ff ff       	callq  400d30 <close@plt>
  40261e:	b8 ff ff ff ff       	mov    $0xffffffff,%eax
  402623:	e9 72 05 00 00       	jmpq   402b9a <submitr+0x746>
  402628:	48 c7 c6 ff ff ff ff 	mov    $0xffffffffffffffff,%rsi
  40262f:	b8 00 00 00 00       	mov    $0x0,%eax
  402634:	48 89 f1             	mov    %rsi,%rcx
  402637:	4c 89 ef             	mov    %r13,%rdi
  40263a:	f2 ae                	repnz scas %es:(%rdi),%al
  40263c:	48 f7 d1             	not    %rcx
  40263f:	48 89 ca             	mov    %rcx,%rdx
  402642:	48 89 f1             	mov    %rsi,%rcx
  402645:	4c 89 ff             	mov    %r15,%rdi
  402648:	f2 ae                	repnz scas %es:(%rdi),%al
  40264a:	48 f7 d1             	not    %rcx
  40264d:	49 89 c8             	mov    %rcx,%r8
  402650:	48 89 f1             	mov    %rsi,%rcx
  402653:	4c 89 f7             	mov    %r14,%rdi
  402656:	f2 ae                	repnz scas %es:(%rdi),%al
  402658:	48 f7 d1             	not    %rcx
  40265b:	4d 8d 44 08 fe       	lea    -0x2(%r8,%rcx,1),%r8
  402660:	48 89 f1             	mov    %rsi,%rcx
  402663:	48 8b 7c 24 08       	mov    0x8(%rsp),%rdi
  402668:	f2 ae                	repnz scas %es:(%rdi),%al
  40266a:	48 89 c8             	mov    %rcx,%rax
  40266d:	48 f7 d0             	not    %rax
  402670:	49 8d 4c 00 ff       	lea    -0x1(%r8,%rax,1),%rcx
  402675:	48 8d 44 52 fd       	lea    -0x3(%rdx,%rdx,2),%rax
  40267a:	48 8d 84 01 80 00 00 	lea    0x80(%rcx,%rax,1),%rax
  402681:	00 
  402682:	48 3d 00 20 00 00    	cmp    $0x2000,%rax
  402688:	76 72                	jbe    4026fc <submitr+0x2a8>
  40268a:	48 b8 45 72 72 6f 72 	movabs $0x52203a726f727245,%rax
  402691:	3a 20 52 
  402694:	48 89 03             	mov    %rax,(%rbx)
  402697:	48 b8 65 73 75 6c 74 	movabs $0x747320746c757365,%rax
  40269e:	20 73 74 
  4026a1:	48 89 43 08          	mov    %rax,0x8(%rbx)
  4026a5:	48 b8 72 69 6e 67 20 	movabs $0x6f6f7420676e6972,%rax
  4026ac:	74 6f 6f 
  4026af:	48 89 43 10          	mov    %rax,0x10(%rbx)
  4026b3:	48 b8 20 6c 61 72 67 	movabs $0x202e656772616c20,%rax
  4026ba:	65 2e 20 
  4026bd:	48 89 43 18          	mov    %rax,0x18(%rbx)
  4026c1:	48 b8 49 6e 63 72 65 	movabs $0x6573616572636e49,%rax
  4026c8:	61 73 65 
  4026cb:	48 89 43 20          	mov    %rax,0x20(%rbx)
  4026cf:	48 b8 20 53 55 42 4d 	movabs $0x5254494d42555320,%rax
  4026d6:	49 54 52 
  4026d9:	48 89 43 28          	mov    %rax,0x28(%rbx)
  4026dd:	48 b8 5f 4d 41 58 42 	movabs $0x46554258414d5f,%rax
  4026e4:	55 46 00 
  4026e7:	48 89 43 30          	mov    %rax,0x30(%rbx)
  4026eb:	89 ef                	mov    %ebp,%edi
  4026ed:	e8 3e e6 ff ff       	callq  400d30 <close@plt>
  4026f2:	b8 ff ff ff ff       	mov    $0xffffffff,%eax
  4026f7:	e9 9e 04 00 00       	jmpq   402b9a <submitr+0x746>
  4026fc:	48 8d b4 24 40 40 00 	lea    0x4040(%rsp),%rsi
  402703:	00 
  402704:	b9 00 04 00 00       	mov    $0x400,%ecx
  402709:	b8 00 00 00 00       	mov    $0x0,%eax
  40270e:	48 89 f7             	mov    %rsi,%rdi
  402711:	f3 48 ab             	rep stos %rax,%es:(%rdi)
  402714:	4c 89 ef             	mov    %r13,%rdi
  402717:	e8 2b fc ff ff       	callq  402347 <urlencode>
  40271c:	85 c0                	test   %eax,%eax
  40271e:	0f 89 8a 00 00 00    	jns    4027ae <submitr+0x35a>
  402724:	48 b8 45 72 72 6f 72 	movabs $0x52203a726f727245,%rax
  40272b:	3a 20 52 
  40272e:	48 89 03             	mov    %rax,(%rbx)
  402731:	48 b8 65 73 75 6c 74 	movabs $0x747320746c757365,%rax
  402738:	20 73 74 
  40273b:	48 89 43 08          	mov    %rax,0x8(%rbx)
  40273f:	48 b8 72 69 6e 67 20 	movabs $0x6e6f6320676e6972,%rax
  402746:	63 6f 6e 
  402749:	48 89 43 10          	mov    %rax,0x10(%rbx)
  40274d:	48 b8 74 61 69 6e 73 	movabs $0x6e6120736e696174,%rax
  402754:	20 61 6e 
  402757:	48 89 43 18          	mov    %rax,0x18(%rbx)
  40275b:	48 b8 20 69 6c 6c 65 	movabs $0x6c6167656c6c6920,%rax
  402762:	67 61 6c 
  402765:	48 89 43 20          	mov    %rax,0x20(%rbx)
  402769:	48 b8 20 6f 72 20 75 	movabs $0x72706e7520726f20,%rax
  402770:	6e 70 72 
  402773:	48 89 43 28          	mov    %rax,0x28(%rbx)
  402777:	48 b8 69 6e 74 61 62 	movabs $0x20656c6261746e69,%rax
  40277e:	6c 65 20 
  402781:	48 89 43 30          	mov    %rax,0x30(%rbx)
  402785:	48 b8 63 68 61 72 61 	movabs $0x6574636172616863,%rax
  40278c:	63 74 65 
  40278f:	48 89 43 38          	mov    %rax,0x38(%rbx)
  402793:	66 c7 43 40 72 2e    	movw   $0x2e72,0x40(%rbx)
  402799:	c6 43 42 00          	movb   $0x0,0x42(%rbx)
  40279d:	89 ef                	mov    %ebp,%edi
  40279f:	e8 8c e5 ff ff       	callq  400d30 <close@plt>
  4027a4:	b8 ff ff ff ff       	mov    $0xffffffff,%eax
  4027a9:	e9 ec 03 00 00       	jmpq   402b9a <submitr+0x746>
  4027ae:	4c 8d ac 24 40 20 00 	lea    0x2040(%rsp),%r13
  4027b5:	00 
  4027b6:	41 54                	push   %r12
  4027b8:	48 8d 84 24 48 40 00 	lea    0x4048(%rsp),%rax
  4027bf:	00 
  4027c0:	50                   	push   %rax
  4027c1:	4d 89 f9             	mov    %r15,%r9
  4027c4:	4d 89 f0             	mov    %r14,%r8
  4027c7:	b9 28 37 40 00       	mov    $0x403728,%ecx
  4027cc:	ba 00 20 00 00       	mov    $0x2000,%edx
  4027d1:	be 01 00 00 00       	mov    $0x1,%esi
  4027d6:	4c 89 ef             	mov    %r13,%rdi
  4027d9:	b8 00 00 00 00       	mov    $0x0,%eax
  4027de:	e8 9d e6 ff ff       	callq  400e80 <__sprintf_chk@plt>
  4027e3:	b8 00 00 00 00       	mov    $0x0,%eax
  4027e8:	48 c7 c1 ff ff ff ff 	mov    $0xffffffffffffffff,%rcx
  4027ef:	4c 89 ef             	mov    %r13,%rdi
  4027f2:	f2 ae                	repnz scas %es:(%rdi),%al
  4027f4:	48 f7 d1             	not    %rcx
  4027f7:	48 8d 51 ff          	lea    -0x1(%rcx),%rdx
  4027fb:	4c 89 ee             	mov    %r13,%rsi
  4027fe:	89 ef                	mov    %ebp,%edi
  402800:	e8 b1 f9 ff ff       	callq  4021b6 <rio_writen>
  402805:	48 83 c4 10          	add    $0x10,%rsp
  402809:	48 85 c0             	test   %rax,%rax
  40280c:	79 6e                	jns    40287c <submitr+0x428>
  40280e:	48 b8 45 72 72 6f 72 	movabs $0x43203a726f727245,%rax
  402815:	3a 20 43 
  402818:	48 89 03             	mov    %rax,(%rbx)
  40281b:	48 b8 6c 69 65 6e 74 	movabs $0x6e7520746e65696c,%rax
  402822:	20 75 6e 
  402825:	48 89 43 08          	mov    %rax,0x8(%rbx)
  402829:	48 b8 61 62 6c 65 20 	movabs $0x206f7420656c6261,%rax
  402830:	74 6f 20 
  402833:	48 89 43 10          	mov    %rax,0x10(%rbx)
  402837:	48 b8 77 72 69 74 65 	movabs $0x6f74206574697277,%rax
  40283e:	20 74 6f 
  402841:	48 89 43 18          	mov    %rax,0x18(%rbx)
  402845:	48 b8 20 74 68 65 20 	movabs $0x7365722065687420,%rax
  40284c:	72 65 73 
  40284f:	48 89 43 20          	mov    %rax,0x20(%rbx)
  402853:	48 b8 75 6c 74 20 73 	movabs $0x7672657320746c75,%rax
  40285a:	65 72 76 
  40285d:	48 89 43 28          	mov    %rax,0x28(%rbx)
  402861:	66 c7 43 30 65 72    	movw   $0x7265,0x30(%rbx)
  402867:	c6 43 32 00          	movb   $0x0,0x32(%rbx)
  40286b:	89 ef                	mov    %ebp,%edi
  40286d:	e8 be e4 ff ff       	callq  400d30 <close@plt>
  402872:	b8 ff ff ff ff       	mov    $0xffffffff,%eax
  402877:	e9 1e 03 00 00       	jmpq   402b9a <submitr+0x746>
  40287c:	89 ee                	mov    %ebp,%esi
  40287e:	48 8d 7c 24 30       	lea    0x30(%rsp),%rdi
  402883:	e8 ee f8 ff ff       	callq  402176 <rio_readinitb>
  402888:	ba 00 20 00 00       	mov    $0x2000,%edx
  40288d:	48 8d b4 24 40 20 00 	lea    0x2040(%rsp),%rsi
  402894:	00 
  402895:	48 8d 7c 24 30       	lea    0x30(%rsp),%rdi
  40289a:	e8 fe f9 ff ff       	callq  40229d <rio_readlineb>
  40289f:	48 85 c0             	test   %rax,%rax
  4028a2:	7f 7d                	jg     402921 <submitr+0x4cd>
  4028a4:	48 b8 45 72 72 6f 72 	movabs $0x43203a726f727245,%rax
  4028ab:	3a 20 43 
  4028ae:	48 89 03             	mov    %rax,(%rbx)
  4028b1:	48 b8 6c 69 65 6e 74 	movabs $0x6e7520746e65696c,%rax
  4028b8:	20 75 6e 
  4028bb:	48 89 43 08          	mov    %rax,0x8(%rbx)
  4028bf:	48 b8 61 62 6c 65 20 	movabs $0x206f7420656c6261,%rax
  4028c6:	74 6f 20 
  4028c9:	48 89 43 10          	mov    %rax,0x10(%rbx)
  4028cd:	48 b8 72 65 61 64 20 	movabs $0x7269662064616572,%rax
  4028d4:	66 69 72 
  4028d7:	48 89 43 18          	mov    %rax,0x18(%rbx)
  4028db:	48 b8 73 74 20 68 65 	movabs $0x6564616568207473,%rax
  4028e2:	61 64 65 
  4028e5:	48 89 43 20          	mov    %rax,0x20(%rbx)
  4028e9:	48 b8 72 20 66 72 6f 	movabs $0x72206d6f72662072,%rax
  4028f0:	6d 20 72 
  4028f3:	48 89 43 28          	mov    %rax,0x28(%rbx)
  4028f7:	48 b8 65 73 75 6c 74 	movabs $0x657320746c757365,%rax
  4028fe:	20 73 65 
  402901:	48 89 43 30          	mov    %rax,0x30(%rbx)
  402905:	c7 43 38 72 76 65 72 	movl   $0x72657672,0x38(%rbx)
  40290c:	c6 43 3c 00          	movb   $0x0,0x3c(%rbx)
  402910:	89 ef                	mov    %ebp,%edi
  402912:	e8 19 e4 ff ff       	callq  400d30 <close@plt>
  402917:	b8 ff ff ff ff       	mov    $0xffffffff,%eax
  40291c:	e9 79 02 00 00       	jmpq   402b9a <submitr+0x746>
  402921:	4c 8d 84 24 40 80 00 	lea    0x8040(%rsp),%r8
  402928:	00 
  402929:	48 8d 4c 24 1c       	lea    0x1c(%rsp),%rcx
  40292e:	48 8d 94 24 40 60 00 	lea    0x6040(%rsp),%rdx
  402935:	00 
  402936:	be 9f 37 40 00       	mov    $0x40379f,%esi
  40293b:	48 8d bc 24 40 20 00 	lea    0x2040(%rsp),%rdi
  402942:	00 
  402943:	b8 00 00 00 00       	mov    $0x0,%eax
  402948:	e8 93 e4 ff ff       	callq  400de0 <__isoc99_sscanf@plt>
  40294d:	e9 95 00 00 00       	jmpq   4029e7 <submitr+0x593>
  402952:	ba 00 20 00 00       	mov    $0x2000,%edx
  402957:	48 8d b4 24 40 20 00 	lea    0x2040(%rsp),%rsi
  40295e:	00 
  40295f:	48 8d 7c 24 30       	lea    0x30(%rsp),%rdi
  402964:	e8 34 f9 ff ff       	callq  40229d <rio_readlineb>
  402969:	48 85 c0             	test   %rax,%rax
  40296c:	7f 79                	jg     4029e7 <submitr+0x593>
  40296e:	48 b8 45 72 72 6f 72 	movabs $0x43203a726f727245,%rax
  402975:	3a 20 43 
  402978:	48 89 03             	mov    %rax,(%rbx)
  40297b:	48 b8 6c 69 65 6e 74 	movabs $0x6e7520746e65696c,%rax
  402982:	20 75 6e 
  402985:	48 89 43 08          	mov    %rax,0x8(%rbx)
  402989:	48 b8 61 62 6c 65 20 	movabs $0x206f7420656c6261,%rax
  402990:	74 6f 20 
  402993:	48 89 43 10          	mov    %rax,0x10(%rbx)
  402997:	48 b8 72 65 61 64 20 	movabs $0x6165682064616572,%rax
  40299e:	68 65 61 
  4029a1:	48 89 43 18          	mov    %rax,0x18(%rbx)
  4029a5:	48 b8 64 65 72 73 20 	movabs $0x6f72662073726564,%rax
  4029ac:	66 72 6f 
  4029af:	48 89 43 20          	mov    %rax,0x20(%rbx)
  4029b3:	48 b8 6d 20 74 68 65 	movabs $0x657220656874206d,%rax
  4029ba:	20 72 65 
  4029bd:	48 89 43 28          	mov    %rax,0x28(%rbx)
  4029c1:	48 b8 73 75 6c 74 20 	movabs $0x72657320746c7573,%rax
  4029c8:	73 65 72 
  4029cb:	48 89 43 30          	mov    %rax,0x30(%rbx)
  4029cf:	c7 43 38 76 65 72 00 	movl   $0x726576,0x38(%rbx)
  4029d6:	89 ef                	mov    %ebp,%edi
  4029d8:	e8 53 e3 ff ff       	callq  400d30 <close@plt>
  4029dd:	b8 ff ff ff ff       	mov    $0xffffffff,%eax
  4029e2:	e9 b3 01 00 00       	jmpq   402b9a <submitr+0x746>
  4029e7:	0f b6 94 24 40 20 00 	movzbl 0x2040(%rsp),%edx
  4029ee:	00 
  4029ef:	b8 0d 00 00 00       	mov    $0xd,%eax
  4029f4:	29 d0                	sub    %edx,%eax
  4029f6:	75 1b                	jne    402a13 <submitr+0x5bf>
  4029f8:	0f b6 94 24 41 20 00 	movzbl 0x2041(%rsp),%edx
  4029ff:	00 
  402a00:	b8 0a 00 00 00       	mov    $0xa,%eax
  402a05:	29 d0                	sub    %edx,%eax
  402a07:	75 0a                	jne    402a13 <submitr+0x5bf>
  402a09:	0f b6 84 24 42 20 00 	movzbl 0x2042(%rsp),%eax
  402a10:	00 
  402a11:	f7 d8                	neg    %eax
  402a13:	85 c0                	test   %eax,%eax
  402a15:	0f 85 37 ff ff ff    	jne    402952 <submitr+0x4fe>
  402a1b:	ba 00 20 00 00       	mov    $0x2000,%edx
  402a20:	48 8d b4 24 40 20 00 	lea    0x2040(%rsp),%rsi
  402a27:	00 
  402a28:	48 8d 7c 24 30       	lea    0x30(%rsp),%rdi
  402a2d:	e8 6b f8 ff ff       	callq  40229d <rio_readlineb>
  402a32:	48 85 c0             	test   %rax,%rax
  402a35:	0f 8f 83 00 00 00    	jg     402abe <submitr+0x66a>
  402a3b:	48 b8 45 72 72 6f 72 	movabs $0x43203a726f727245,%rax
  402a42:	3a 20 43 
  402a45:	48 89 03             	mov    %rax,(%rbx)
  402a48:	48 b8 6c 69 65 6e 74 	movabs $0x6e7520746e65696c,%rax
  402a4f:	20 75 6e 
  402a52:	48 89 43 08          	mov    %rax,0x8(%rbx)
  402a56:	48 b8 61 62 6c 65 20 	movabs $0x206f7420656c6261,%rax
  402a5d:	74 6f 20 
  402a60:	48 89 43 10          	mov    %rax,0x10(%rbx)
  402a64:	48 b8 72 65 61 64 20 	movabs $0x6174732064616572,%rax
  402a6b:	73 74 61 
  402a6e:	48 89 43 18          	mov    %rax,0x18(%rbx)
  402a72:	48 b8 74 75 73 20 6d 	movabs $0x7373656d20737574,%rax
  402a79:	65 73 73 
  402a7c:	48 89 43 20          	mov    %rax,0x20(%rbx)
  402a80:	48 b8 61 67 65 20 66 	movabs $0x6d6f726620656761,%rax
  402a87:	72 6f 6d 
  402a8a:	48 89 43 28          	mov    %rax,0x28(%rbx)
  402a8e:	48 b8 20 72 65 73 75 	movabs $0x20746c7573657220,%rax
  402a95:	6c 74 20 
  402a98:	48 89 43 30          	mov    %rax,0x30(%rbx)
  402a9c:	c7 43 38 73 65 72 76 	movl   $0x76726573,0x38(%rbx)
  402aa3:	66 c7 43 3c 65 72    	movw   $0x7265,0x3c(%rbx)
  402aa9:	c6 43 3e 00          	movb   $0x0,0x3e(%rbx)
  402aad:	89 ef                	mov    %ebp,%edi
  402aaf:	e8 7c e2 ff ff       	callq  400d30 <close@plt>
  402ab4:	b8 ff ff ff ff       	mov    $0xffffffff,%eax
  402ab9:	e9 dc 00 00 00       	jmpq   402b9a <submitr+0x746>
  402abe:	44 8b 44 24 1c       	mov    0x1c(%rsp),%r8d
  402ac3:	41 81 f8 c8 00 00 00 	cmp    $0xc8,%r8d
  402aca:	74 37                	je     402b03 <submitr+0x6af>
  402acc:	4c 8d 8c 24 40 80 00 	lea    0x8040(%rsp),%r9
  402ad3:	00 
  402ad4:	b9 68 37 40 00       	mov    $0x403768,%ecx
  402ad9:	48 c7 c2 ff ff ff ff 	mov    $0xffffffffffffffff,%rdx
  402ae0:	be 01 00 00 00       	mov    $0x1,%esi
  402ae5:	48 89 df             	mov    %rbx,%rdi
  402ae8:	b8 00 00 00 00       	mov    $0x0,%eax
  402aed:	e8 8e e3 ff ff       	callq  400e80 <__sprintf_chk@plt>
  402af2:	89 ef                	mov    %ebp,%edi
  402af4:	e8 37 e2 ff ff       	callq  400d30 <close@plt>
  402af9:	b8 ff ff ff ff       	mov    $0xffffffff,%eax
  402afe:	e9 97 00 00 00       	jmpq   402b9a <submitr+0x746>
  402b03:	48 8d b4 24 40 20 00 	lea    0x2040(%rsp),%rsi
  402b0a:	00 
  402b0b:	48 89 df             	mov    %rbx,%rdi
  402b0e:	e8 ad e1 ff ff       	callq  400cc0 <strcpy@plt>
  402b13:	89 ef                	mov    %ebp,%edi
  402b15:	e8 16 e2 ff ff       	callq  400d30 <close@plt>
  402b1a:	0f b6 03             	movzbl (%rbx),%eax
  402b1d:	ba 4f 00 00 00       	mov    $0x4f,%edx
  402b22:	29 c2                	sub    %eax,%edx
  402b24:	75 22                	jne    402b48 <submitr+0x6f4>
  402b26:	0f b6 4b 01          	movzbl 0x1(%rbx),%ecx
  402b2a:	b8 4b 00 00 00       	mov    $0x4b,%eax
  402b2f:	29 c8                	sub    %ecx,%eax
  402b31:	75 17                	jne    402b4a <submitr+0x6f6>
  402b33:	0f b6 4b 02          	movzbl 0x2(%rbx),%ecx
  402b37:	b8 0a 00 00 00       	mov    $0xa,%eax
  402b3c:	29 c8                	sub    %ecx,%eax
  402b3e:	75 0a                	jne    402b4a <submitr+0x6f6>
  402b40:	0f b6 43 03          	movzbl 0x3(%rbx),%eax
  402b44:	f7 d8                	neg    %eax
  402b46:	eb 02                	jmp    402b4a <submitr+0x6f6>
  402b48:	89 d0                	mov    %edx,%eax
  402b4a:	85 c0                	test   %eax,%eax
  402b4c:	74 40                	je     402b8e <submitr+0x73a>
  402b4e:	bf b0 37 40 00       	mov    $0x4037b0,%edi
  402b53:	b9 05 00 00 00       	mov    $0x5,%ecx
  402b58:	48 89 de             	mov    %rbx,%rsi
  402b5b:	f3 a6                	repz cmpsb %es:(%rdi),%ds:(%rsi)
  402b5d:	0f 97 c0             	seta   %al
  402b60:	0f 92 c1             	setb   %cl
  402b63:	29 c8                	sub    %ecx,%eax
  402b65:	0f be c0             	movsbl %al,%eax
  402b68:	85 c0                	test   %eax,%eax
  402b6a:	74 2e                	je     402b9a <submitr+0x746>
  402b6c:	85 d2                	test   %edx,%edx
  402b6e:	75 13                	jne    402b83 <submitr+0x72f>
  402b70:	0f b6 43 01          	movzbl 0x1(%rbx),%eax
  402b74:	ba 4b 00 00 00       	mov    $0x4b,%edx
  402b79:	29 c2                	sub    %eax,%edx
  402b7b:	75 06                	jne    402b83 <submitr+0x72f>
  402b7d:	0f b6 53 02          	movzbl 0x2(%rbx),%edx
  402b81:	f7 da                	neg    %edx
  402b83:	85 d2                	test   %edx,%edx
  402b85:	75 0e                	jne    402b95 <submitr+0x741>
  402b87:	b8 00 00 00 00       	mov    $0x0,%eax
  402b8c:	eb 0c                	jmp    402b9a <submitr+0x746>
  402b8e:	b8 00 00 00 00       	mov    $0x0,%eax
  402b93:	eb 05                	jmp    402b9a <submitr+0x746>
  402b95:	b8 ff ff ff ff       	mov    $0xffffffff,%eax
  402b9a:	48 8b 9c 24 48 a0 00 	mov    0xa048(%rsp),%rbx
  402ba1:	00 
  402ba2:	64 48 33 1c 25 28 00 	xor    %fs:0x28,%rbx
  402ba9:	00 00 
  402bab:	74 05                	je     402bb2 <submitr+0x75e>
  402bad:	e8 3e e1 ff ff       	callq  400cf0 <__stack_chk_fail@plt>
  402bb2:	48 81 c4 58 a0 00 00 	add    $0xa058,%rsp
  402bb9:	5b                   	pop    %rbx
  402bba:	5d                   	pop    %rbp
  402bbb:	41 5c                	pop    %r12
  402bbd:	41 5d                	pop    %r13
  402bbf:	41 5e                	pop    %r14
  402bc1:	41 5f                	pop    %r15
  402bc3:	c3                   	retq   

0000000000402bc4 <init_timeout>:
  402bc4:	85 ff                	test   %edi,%edi
  402bc6:	74 23                	je     402beb <init_timeout+0x27>
  402bc8:	53                   	push   %rbx
  402bc9:	89 fb                	mov    %edi,%ebx
  402bcb:	85 ff                	test   %edi,%edi
  402bcd:	79 05                	jns    402bd4 <init_timeout+0x10>
  402bcf:	bb 00 00 00 00       	mov    $0x0,%ebx
  402bd4:	be 88 21 40 00       	mov    $0x402188,%esi
  402bd9:	bf 0e 00 00 00       	mov    $0xe,%edi
  402bde:	e8 7d e1 ff ff       	callq  400d60 <signal@plt>
  402be3:	89 df                	mov    %ebx,%edi
  402be5:	e8 36 e1 ff ff       	callq  400d20 <alarm@plt>
  402bea:	5b                   	pop    %rbx
  402beb:	f3 c3                	repz retq 

0000000000402bed <init_driver>:
  402bed:	55                   	push   %rbp
  402bee:	53                   	push   %rbx
  402bef:	48 83 ec 28          	sub    $0x28,%rsp
  402bf3:	48 89 fd             	mov    %rdi,%rbp
  402bf6:	64 48 8b 04 25 28 00 	mov    %fs:0x28,%rax
  402bfd:	00 00 
  402bff:	48 89 44 24 18       	mov    %rax,0x18(%rsp)
  402c04:	31 c0                	xor    %eax,%eax
  402c06:	be 01 00 00 00       	mov    $0x1,%esi
  402c0b:	bf 0d 00 00 00       	mov    $0xd,%edi
  402c10:	e8 4b e1 ff ff       	callq  400d60 <signal@plt>
  402c15:	be 01 00 00 00       	mov    $0x1,%esi
  402c1a:	bf 1d 00 00 00       	mov    $0x1d,%edi
  402c1f:	e8 3c e1 ff ff       	callq  400d60 <signal@plt>
  402c24:	be 01 00 00 00       	mov    $0x1,%esi
  402c29:	bf 1d 00 00 00       	mov    $0x1d,%edi
  402c2e:	e8 2d e1 ff ff       	callq  400d60 <signal@plt>
  402c33:	ba 00 00 00 00       	mov    $0x0,%edx
  402c38:	be 01 00 00 00       	mov    $0x1,%esi
  402c3d:	bf 02 00 00 00       	mov    $0x2,%edi
  402c42:	e8 49 e2 ff ff       	callq  400e90 <socket@plt>
  402c47:	85 c0                	test   %eax,%eax
  402c49:	79 4f                	jns    402c9a <init_driver+0xad>
  402c4b:	48 b8 45 72 72 6f 72 	movabs $0x43203a726f727245,%rax
  402c52:	3a 20 43 
  402c55:	48 89 45 00          	mov    %rax,0x0(%rbp)
  402c59:	48 b8 6c 69 65 6e 74 	movabs $0x6e7520746e65696c,%rax
  402c60:	20 75 6e 
  402c63:	48 89 45 08          	mov    %rax,0x8(%rbp)
  402c67:	48 b8 61 62 6c 65 20 	movabs $0x206f7420656c6261,%rax
  402c6e:	74 6f 20 
  402c71:	48 89 45 10          	mov    %rax,0x10(%rbp)
  402c75:	48 b8 63 72 65 61 74 	movabs $0x7320657461657263,%rax
  402c7c:	65 20 73 
  402c7f:	48 89 45 18          	mov    %rax,0x18(%rbp)
  402c83:	c7 45 20 6f 63 6b 65 	movl   $0x656b636f,0x20(%rbp)
  402c8a:	66 c7 45 24 74 00    	movw   $0x74,0x24(%rbp)
  402c90:	b8 ff ff ff ff       	mov    $0xffffffff,%eax
  402c95:	e9 2a 01 00 00       	jmpq   402dc4 <init_driver+0x1d7>
  402c9a:	89 c3                	mov    %eax,%ebx
  402c9c:	bf cd 32 40 00       	mov    $0x4032cd,%edi
  402ca1:	e8 ca e0 ff ff       	callq  400d70 <gethostbyname@plt>
  402ca6:	48 85 c0             	test   %rax,%rax
  402ca9:	75 68                	jne    402d13 <init_driver+0x126>
  402cab:	48 b8 45 72 72 6f 72 	movabs $0x44203a726f727245,%rax
  402cb2:	3a 20 44 
  402cb5:	48 89 45 00          	mov    %rax,0x0(%rbp)
  402cb9:	48 b8 4e 53 20 69 73 	movabs $0x6e7520736920534e,%rax
  402cc0:	20 75 6e 
  402cc3:	48 89 45 08          	mov    %rax,0x8(%rbp)
  402cc7:	48 b8 61 62 6c 65 20 	movabs $0x206f7420656c6261,%rax
  402cce:	74 6f 20 
  402cd1:	48 89 45 10          	mov    %rax,0x10(%rbp)
  402cd5:	48 b8 72 65 73 6f 6c 	movabs $0x2065766c6f736572,%rax
  402cdc:	76 65 20 
  402cdf:	48 89 45 18          	mov    %rax,0x18(%rbp)
  402ce3:	48 b8 73 65 72 76 65 	movabs $0x6120726576726573,%rax
  402cea:	72 20 61 
  402ced:	48 89 45 20          	mov    %rax,0x20(%rbp)
  402cf1:	c7 45 28 64 64 72 65 	movl   $0x65726464,0x28(%rbp)
  402cf8:	66 c7 45 2c 73 73    	movw   $0x7373,0x2c(%rbp)
  402cfe:	c6 45 2e 00          	movb   $0x0,0x2e(%rbp)
  402d02:	89 df                	mov    %ebx,%edi
  402d04:	e8 27 e0 ff ff       	callq  400d30 <close@plt>
  402d09:	b8 ff ff ff ff       	mov    $0xffffffff,%eax
  402d0e:	e9 b1 00 00 00       	jmpq   402dc4 <init_driver+0x1d7>
  402d13:	48 c7 04 24 00 00 00 	movq   $0x0,(%rsp)
  402d1a:	00 
  402d1b:	48 c7 44 24 08 00 00 	movq   $0x0,0x8(%rsp)
  402d22:	00 00 
  402d24:	66 c7 04 24 02 00    	movw   $0x2,(%rsp)
  402d2a:	48 63 50 14          	movslq 0x14(%rax),%rdx
  402d2e:	48 8b 40 18          	mov    0x18(%rax),%rax
  402d32:	48 8b 30             	mov    (%rax),%rsi
  402d35:	48 8d 7c 24 04       	lea    0x4(%rsp),%rdi
  402d3a:	b9 0c 00 00 00       	mov    $0xc,%ecx
  402d3f:	e8 3c e0 ff ff       	callq  400d80 <__memmove_chk@plt>
  402d44:	66 c7 44 24 02 3c 9a 	movw   $0x9a3c,0x2(%rsp)
  402d4b:	ba 10 00 00 00       	mov    $0x10,%edx
  402d50:	48 89 e6             	mov    %rsp,%rsi
  402d53:	89 df                	mov    %ebx,%edi
  402d55:	e8 06 e1 ff ff       	callq  400e60 <connect@plt>
  402d5a:	85 c0                	test   %eax,%eax
  402d5c:	79 50                	jns    402dae <init_driver+0x1c1>
  402d5e:	48 b8 45 72 72 6f 72 	movabs $0x55203a726f727245,%rax
  402d65:	3a 20 55 
  402d68:	48 89 45 00          	mov    %rax,0x0(%rbp)
  402d6c:	48 b8 6e 61 62 6c 65 	movabs $0x6f7420656c62616e,%rax
  402d73:	20 74 6f 
  402d76:	48 89 45 08          	mov    %rax,0x8(%rbp)
  402d7a:	48 b8 20 63 6f 6e 6e 	movabs $0x7463656e6e6f6320,%rax
  402d81:	65 63 74 
  402d84:	48 89 45 10          	mov    %rax,0x10(%rbp)
  402d88:	48 b8 20 74 6f 20 73 	movabs $0x76726573206f7420,%rax
  402d8f:	65 72 76 
  402d92:	48 89 45 18          	mov    %rax,0x18(%rbp)
  402d96:	66 c7 45 20 65 72    	movw   $0x7265,0x20(%rbp)
  402d9c:	c6 45 22 00          	movb   $0x0,0x22(%rbp)
  402da0:	89 df                	mov    %ebx,%edi
  402da2:	e8 89 df ff ff       	callq  400d30 <close@plt>
  402da7:	b8 ff ff ff ff       	mov    $0xffffffff,%eax
  402dac:	eb 16                	jmp    402dc4 <init_driver+0x1d7>
  402dae:	89 df                	mov    %ebx,%edi
  402db0:	e8 7b df ff ff       	callq  400d30 <close@plt>
  402db5:	66 c7 45 00 4f 4b    	movw   $0x4b4f,0x0(%rbp)
  402dbb:	c6 45 02 00          	movb   $0x0,0x2(%rbp)
  402dbf:	b8 00 00 00 00       	mov    $0x0,%eax
  402dc4:	48 8b 4c 24 18       	mov    0x18(%rsp),%rcx
  402dc9:	64 48 33 0c 25 28 00 	xor    %fs:0x28,%rcx
  402dd0:	00 00 
  402dd2:	74 05                	je     402dd9 <init_driver+0x1ec>
  402dd4:	e8 17 df ff ff       	callq  400cf0 <__stack_chk_fail@plt>
  402dd9:	48 83 c4 28          	add    $0x28,%rsp
  402ddd:	5b                   	pop    %rbx
  402dde:	5d                   	pop    %rbp
  402ddf:	c3                   	retq   

0000000000402de0 <driver_post>:
  402de0:	53                   	push   %rbx
  402de1:	4c 89 cb             	mov    %r9,%rbx
  402de4:	45 85 c0             	test   %r8d,%r8d
  402de7:	74 27                	je     402e10 <driver_post+0x30>
  402de9:	48 89 ca             	mov    %rcx,%rdx
  402dec:	be b5 37 40 00       	mov    $0x4037b5,%esi
  402df1:	bf 01 00 00 00       	mov    $0x1,%edi
  402df6:	b8 00 00 00 00       	mov    $0x0,%eax
  402dfb:	e8 00 e0 ff ff       	callq  400e00 <__printf_chk@plt>
  402e00:	66 c7 03 4f 4b       	movw   $0x4b4f,(%rbx)
  402e05:	c6 43 02 00          	movb   $0x0,0x2(%rbx)
  402e09:	b8 00 00 00 00       	mov    $0x0,%eax
  402e0e:	eb 3f                	jmp    402e4f <driver_post+0x6f>
  402e10:	48 85 ff             	test   %rdi,%rdi
  402e13:	74 2c                	je     402e41 <driver_post+0x61>
  402e15:	80 3f 00             	cmpb   $0x0,(%rdi)
  402e18:	74 27                	je     402e41 <driver_post+0x61>
  402e1a:	48 83 ec 08          	sub    $0x8,%rsp
  402e1e:	41 51                	push   %r9
  402e20:	49 89 c9             	mov    %rcx,%r9
  402e23:	49 89 d0             	mov    %rdx,%r8
  402e26:	48 89 f9             	mov    %rdi,%rcx
  402e29:	48 89 f2             	mov    %rsi,%rdx
  402e2c:	be 9a 3c 00 00       	mov    $0x3c9a,%esi
  402e31:	bf cd 32 40 00       	mov    $0x4032cd,%edi
  402e36:	e8 19 f6 ff ff       	callq  402454 <submitr>
  402e3b:	48 83 c4 10          	add    $0x10,%rsp
  402e3f:	eb 0e                	jmp    402e4f <driver_post+0x6f>
  402e41:	66 c7 03 4f 4b       	movw   $0x4b4f,(%rbx)
  402e46:	c6 43 02 00          	movb   $0x0,0x2(%rbx)
  402e4a:	b8 00 00 00 00       	mov    $0x0,%eax
  402e4f:	5b                   	pop    %rbx
  402e50:	c3                   	retq   

0000000000402e51 <check>:
  402e51:	89 f8                	mov    %edi,%eax
  402e53:	c1 e8 1c             	shr    $0x1c,%eax
  402e56:	85 c0                	test   %eax,%eax
  402e58:	74 1d                	je     402e77 <check+0x26>
  402e5a:	b9 00 00 00 00       	mov    $0x0,%ecx
  402e5f:	eb 0b                	jmp    402e6c <check+0x1b>
  402e61:	89 f8                	mov    %edi,%eax
  402e63:	d3 e8                	shr    %cl,%eax
  402e65:	3c 0a                	cmp    $0xa,%al
  402e67:	74 14                	je     402e7d <check+0x2c>
  402e69:	83 c1 08             	add    $0x8,%ecx
  402e6c:	83 f9 1f             	cmp    $0x1f,%ecx
  402e6f:	7e f0                	jle    402e61 <check+0x10>
  402e71:	b8 01 00 00 00       	mov    $0x1,%eax
  402e76:	c3                   	retq   
  402e77:	b8 00 00 00 00       	mov    $0x0,%eax
  402e7c:	c3                   	retq   
  402e7d:	b8 00 00 00 00       	mov    $0x0,%eax
  402e82:	c3                   	retq   

0000000000402e83 <gencookie>:
  402e83:	53                   	push   %rbx
  402e84:	83 c7 01             	add    $0x1,%edi
  402e87:	e8 14 de ff ff       	callq  400ca0 <srandom@plt>
  402e8c:	e8 2f df ff ff       	callq  400dc0 <random@plt>
  402e91:	89 c3                	mov    %eax,%ebx
  402e93:	89 c7                	mov    %eax,%edi
  402e95:	e8 b7 ff ff ff       	callq  402e51 <check>
  402e9a:	85 c0                	test   %eax,%eax
  402e9c:	74 ee                	je     402e8c <gencookie+0x9>
  402e9e:	89 d8                	mov    %ebx,%eax
  402ea0:	5b                   	pop    %rbx
  402ea1:	c3                   	retq   
  402ea2:	66 2e 0f 1f 84 00 00 	nopw   %cs:0x0(%rax,%rax,1)
  402ea9:	00 00 00 
  402eac:	0f 1f 40 00          	nopl   0x0(%rax)

0000000000402eb0 <__libc_csu_init>:
  402eb0:	41 57                	push   %r15
  402eb2:	41 56                	push   %r14
  402eb4:	41 89 ff             	mov    %edi,%r15d
  402eb7:	41 55                	push   %r13
  402eb9:	41 54                	push   %r12
  402ebb:	4c 8d 25 4e 1f 20 00 	lea    0x201f4e(%rip),%r12        # 604e10 <__frame_dummy_init_array_entry>
  402ec2:	55                   	push   %rbp
  402ec3:	48 8d 2d 4e 1f 20 00 	lea    0x201f4e(%rip),%rbp        # 604e18 <__init_array_end>
  402eca:	53                   	push   %rbx
  402ecb:	49 89 f6             	mov    %rsi,%r14
  402ece:	49 89 d5             	mov    %rdx,%r13
  402ed1:	4c 29 e5             	sub    %r12,%rbp
  402ed4:	48 83 ec 08          	sub    $0x8,%rsp
  402ed8:	48 c1 fd 03          	sar    $0x3,%rbp
  402edc:	e8 67 dd ff ff       	callq  400c48 <_init>
  402ee1:	48 85 ed             	test   %rbp,%rbp
  402ee4:	74 20                	je     402f06 <__libc_csu_init+0x56>
  402ee6:	31 db                	xor    %ebx,%ebx
  402ee8:	0f 1f 84 00 00 00 00 	nopl   0x0(%rax,%rax,1)
  402eef:	00 
  402ef0:	4c 89 ea             	mov    %r13,%rdx
  402ef3:	4c 89 f6             	mov    %r14,%rsi
  402ef6:	44 89 ff             	mov    %r15d,%edi
  402ef9:	41 ff 14 dc          	callq  *(%r12,%rbx,8)
  402efd:	48 83 c3 01          	add    $0x1,%rbx
  402f01:	48 39 eb             	cmp    %rbp,%rbx
  402f04:	75 ea                	jne    402ef0 <__libc_csu_init+0x40>
  402f06:	48 83 c4 08          	add    $0x8,%rsp
  402f0a:	5b                   	pop    %rbx
  402f0b:	5d                   	pop    %rbp
  402f0c:	41 5c                	pop    %r12
  402f0e:	41 5d                	pop    %r13
  402f10:	41 5e                	pop    %r14
  402f12:	41 5f                	pop    %r15
  402f14:	c3                   	retq   
  402f15:	90                   	nop
  402f16:	66 2e 0f 1f 84 00 00 	nopw   %cs:0x0(%rax,%rax,1)
  402f1d:	00 00 00 

0000000000402f20 <__libc_csu_fini>:
  402f20:	f3 c3                	repz retq 

Disassembly of section .fini:

0000000000402f24 <_fini>:
  402f24:	48 83 ec 08          	sub    $0x8,%rsp
  402f28:	48 83 c4 08          	add    $0x8,%rsp
  402f2c:	c3                   	retq   
