
rtarget:     file format elf64-x86-64


Disassembly of section .init:

0000000000400c48 <_init>:
  400c48:	48 83 ec 08          	sub    $0x8,%rsp
  400c4c:	48 8b 05 a5 43 20 00 	mov    0x2043a5(%rip),%rax        # 604ff8 <_DYNAMIC+0x1d0>
  400c53:	48 85 c0             	test   %rax,%rax
  400c56:	74 05                	je     400c5d <_init+0x15>
  400c58:	e8 43 02 00 00       	callq  400ea0 <socket@plt+0x10>
  400c5d:	48 83 c4 08          	add    $0x8,%rsp
  400c61:	c3                   	retq   

Disassembly of section .plt:

0000000000400c70 <strcasecmp@plt-0x10>:
  400c70:	ff 35 92 43 20 00    	pushq  0x204392(%rip)        # 605008 <_GLOBAL_OFFSET_TABLE_+0x8>
  400c76:	ff 25 94 43 20 00    	jmpq   *0x204394(%rip)        # 605010 <_GLOBAL_OFFSET_TABLE_+0x10>
  400c7c:	0f 1f 40 00          	nopl   0x0(%rax)

0000000000400c80 <strcasecmp@plt>:
  400c80:	ff 25 92 43 20 00    	jmpq   *0x204392(%rip)        # 605018 <_GLOBAL_OFFSET_TABLE_+0x18>
  400c86:	68 00 00 00 00       	pushq  $0x0
  400c8b:	e9 e0 ff ff ff       	jmpq   400c70 <_init+0x28>

0000000000400c90 <__errno_location@plt>:
  400c90:	ff 25 8a 43 20 00    	jmpq   *0x20438a(%rip)        # 605020 <_GLOBAL_OFFSET_TABLE_+0x20>
  400c96:	68 01 00 00 00       	pushq  $0x1
  400c9b:	e9 d0 ff ff ff       	jmpq   400c70 <_init+0x28>

0000000000400ca0 <srandom@plt>:
  400ca0:	ff 25 82 43 20 00    	jmpq   *0x204382(%rip)        # 605028 <_GLOBAL_OFFSET_TABLE_+0x28>
  400ca6:	68 02 00 00 00       	pushq  $0x2
  400cab:	e9 c0 ff ff ff       	jmpq   400c70 <_init+0x28>

0000000000400cb0 <strncmp@plt>:
  400cb0:	ff 25 7a 43 20 00    	jmpq   *0x20437a(%rip)        # 605030 <_GLOBAL_OFFSET_TABLE_+0x30>
  400cb6:	68 03 00 00 00       	pushq  $0x3
  400cbb:	e9 b0 ff ff ff       	jmpq   400c70 <_init+0x28>

0000000000400cc0 <strcpy@plt>:
  400cc0:	ff 25 72 43 20 00    	jmpq   *0x204372(%rip)        # 605038 <_GLOBAL_OFFSET_TABLE_+0x38>
  400cc6:	68 04 00 00 00       	pushq  $0x4
  400ccb:	e9 a0 ff ff ff       	jmpq   400c70 <_init+0x28>

0000000000400cd0 <puts@plt>:
  400cd0:	ff 25 6a 43 20 00    	jmpq   *0x20436a(%rip)        # 605040 <_GLOBAL_OFFSET_TABLE_+0x40>
  400cd6:	68 05 00 00 00       	pushq  $0x5
  400cdb:	e9 90 ff ff ff       	jmpq   400c70 <_init+0x28>

0000000000400ce0 <write@plt>:
  400ce0:	ff 25 62 43 20 00    	jmpq   *0x204362(%rip)        # 605048 <_GLOBAL_OFFSET_TABLE_+0x48>
  400ce6:	68 06 00 00 00       	pushq  $0x6
  400ceb:	e9 80 ff ff ff       	jmpq   400c70 <_init+0x28>

0000000000400cf0 <__stack_chk_fail@plt>:
  400cf0:	ff 25 5a 43 20 00    	jmpq   *0x20435a(%rip)        # 605050 <_GLOBAL_OFFSET_TABLE_+0x50>
  400cf6:	68 07 00 00 00       	pushq  $0x7
  400cfb:	e9 70 ff ff ff       	jmpq   400c70 <_init+0x28>

0000000000400d00 <mmap@plt>:
  400d00:	ff 25 52 43 20 00    	jmpq   *0x204352(%rip)        # 605058 <_GLOBAL_OFFSET_TABLE_+0x58>
  400d06:	68 08 00 00 00       	pushq  $0x8
  400d0b:	e9 60 ff ff ff       	jmpq   400c70 <_init+0x28>

0000000000400d10 <memset@plt>:
  400d10:	ff 25 4a 43 20 00    	jmpq   *0x20434a(%rip)        # 605060 <_GLOBAL_OFFSET_TABLE_+0x60>
  400d16:	68 09 00 00 00       	pushq  $0x9
  400d1b:	e9 50 ff ff ff       	jmpq   400c70 <_init+0x28>

0000000000400d20 <alarm@plt>:
  400d20:	ff 25 42 43 20 00    	jmpq   *0x204342(%rip)        # 605068 <_GLOBAL_OFFSET_TABLE_+0x68>
  400d26:	68 0a 00 00 00       	pushq  $0xa
  400d2b:	e9 40 ff ff ff       	jmpq   400c70 <_init+0x28>

0000000000400d30 <close@plt>:
  400d30:	ff 25 3a 43 20 00    	jmpq   *0x20433a(%rip)        # 605070 <_GLOBAL_OFFSET_TABLE_+0x70>
  400d36:	68 0b 00 00 00       	pushq  $0xb
  400d3b:	e9 30 ff ff ff       	jmpq   400c70 <_init+0x28>

0000000000400d40 <read@plt>:
  400d40:	ff 25 32 43 20 00    	jmpq   *0x204332(%rip)        # 605078 <_GLOBAL_OFFSET_TABLE_+0x78>
  400d46:	68 0c 00 00 00       	pushq  $0xc
  400d4b:	e9 20 ff ff ff       	jmpq   400c70 <_init+0x28>

0000000000400d50 <__libc_start_main@plt>:
  400d50:	ff 25 2a 43 20 00    	jmpq   *0x20432a(%rip)        # 605080 <_GLOBAL_OFFSET_TABLE_+0x80>
  400d56:	68 0d 00 00 00       	pushq  $0xd
  400d5b:	e9 10 ff ff ff       	jmpq   400c70 <_init+0x28>

0000000000400d60 <signal@plt>:
  400d60:	ff 25 22 43 20 00    	jmpq   *0x204322(%rip)        # 605088 <_GLOBAL_OFFSET_TABLE_+0x88>
  400d66:	68 0e 00 00 00       	pushq  $0xe
  400d6b:	e9 00 ff ff ff       	jmpq   400c70 <_init+0x28>

0000000000400d70 <gethostbyname@plt>:
  400d70:	ff 25 1a 43 20 00    	jmpq   *0x20431a(%rip)        # 605090 <_GLOBAL_OFFSET_TABLE_+0x90>
  400d76:	68 0f 00 00 00       	pushq  $0xf
  400d7b:	e9 f0 fe ff ff       	jmpq   400c70 <_init+0x28>

0000000000400d80 <__memmove_chk@plt>:
  400d80:	ff 25 12 43 20 00    	jmpq   *0x204312(%rip)        # 605098 <_GLOBAL_OFFSET_TABLE_+0x98>
  400d86:	68 10 00 00 00       	pushq  $0x10
  400d8b:	e9 e0 fe ff ff       	jmpq   400c70 <_init+0x28>

0000000000400d90 <strtol@plt>:
  400d90:	ff 25 0a 43 20 00    	jmpq   *0x20430a(%rip)        # 6050a0 <_GLOBAL_OFFSET_TABLE_+0xa0>
  400d96:	68 11 00 00 00       	pushq  $0x11
  400d9b:	e9 d0 fe ff ff       	jmpq   400c70 <_init+0x28>

0000000000400da0 <memcpy@plt>:
  400da0:	ff 25 02 43 20 00    	jmpq   *0x204302(%rip)        # 6050a8 <_GLOBAL_OFFSET_TABLE_+0xa8>
  400da6:	68 12 00 00 00       	pushq  $0x12
  400dab:	e9 c0 fe ff ff       	jmpq   400c70 <_init+0x28>

0000000000400db0 <time@plt>:
  400db0:	ff 25 fa 42 20 00    	jmpq   *0x2042fa(%rip)        # 6050b0 <_GLOBAL_OFFSET_TABLE_+0xb0>
  400db6:	68 13 00 00 00       	pushq  $0x13
  400dbb:	e9 b0 fe ff ff       	jmpq   400c70 <_init+0x28>

0000000000400dc0 <random@plt>:
  400dc0:	ff 25 f2 42 20 00    	jmpq   *0x2042f2(%rip)        # 6050b8 <_GLOBAL_OFFSET_TABLE_+0xb8>
  400dc6:	68 14 00 00 00       	pushq  $0x14
  400dcb:	e9 a0 fe ff ff       	jmpq   400c70 <_init+0x28>

0000000000400dd0 <_IO_getc@plt>:
  400dd0:	ff 25 ea 42 20 00    	jmpq   *0x2042ea(%rip)        # 6050c0 <_GLOBAL_OFFSET_TABLE_+0xc0>
  400dd6:	68 15 00 00 00       	pushq  $0x15
  400ddb:	e9 90 fe ff ff       	jmpq   400c70 <_init+0x28>

0000000000400de0 <__isoc99_sscanf@plt>:
  400de0:	ff 25 e2 42 20 00    	jmpq   *0x2042e2(%rip)        # 6050c8 <_GLOBAL_OFFSET_TABLE_+0xc8>
  400de6:	68 16 00 00 00       	pushq  $0x16
  400deb:	e9 80 fe ff ff       	jmpq   400c70 <_init+0x28>

0000000000400df0 <munmap@plt>:
  400df0:	ff 25 da 42 20 00    	jmpq   *0x2042da(%rip)        # 6050d0 <_GLOBAL_OFFSET_TABLE_+0xd0>
  400df6:	68 17 00 00 00       	pushq  $0x17
  400dfb:	e9 70 fe ff ff       	jmpq   400c70 <_init+0x28>

0000000000400e00 <__printf_chk@plt>:
  400e00:	ff 25 d2 42 20 00    	jmpq   *0x2042d2(%rip)        # 6050d8 <_GLOBAL_OFFSET_TABLE_+0xd8>
  400e06:	68 18 00 00 00       	pushq  $0x18
  400e0b:	e9 60 fe ff ff       	jmpq   400c70 <_init+0x28>

0000000000400e10 <fopen@plt>:
  400e10:	ff 25 ca 42 20 00    	jmpq   *0x2042ca(%rip)        # 6050e0 <_GLOBAL_OFFSET_TABLE_+0xe0>
  400e16:	68 19 00 00 00       	pushq  $0x19
  400e1b:	e9 50 fe ff ff       	jmpq   400c70 <_init+0x28>

0000000000400e20 <getopt@plt>:
  400e20:	ff 25 c2 42 20 00    	jmpq   *0x2042c2(%rip)        # 6050e8 <_GLOBAL_OFFSET_TABLE_+0xe8>
  400e26:	68 1a 00 00 00       	pushq  $0x1a
  400e2b:	e9 40 fe ff ff       	jmpq   400c70 <_init+0x28>

0000000000400e30 <strtoul@plt>:
  400e30:	ff 25 ba 42 20 00    	jmpq   *0x2042ba(%rip)        # 6050f0 <_GLOBAL_OFFSET_TABLE_+0xf0>
  400e36:	68 1b 00 00 00       	pushq  $0x1b
  400e3b:	e9 30 fe ff ff       	jmpq   400c70 <_init+0x28>

0000000000400e40 <gethostname@plt>:
  400e40:	ff 25 b2 42 20 00    	jmpq   *0x2042b2(%rip)        # 6050f8 <_GLOBAL_OFFSET_TABLE_+0xf8>
  400e46:	68 1c 00 00 00       	pushq  $0x1c
  400e4b:	e9 20 fe ff ff       	jmpq   400c70 <_init+0x28>

0000000000400e50 <exit@plt>:
  400e50:	ff 25 aa 42 20 00    	jmpq   *0x2042aa(%rip)        # 605100 <_GLOBAL_OFFSET_TABLE_+0x100>
  400e56:	68 1d 00 00 00       	pushq  $0x1d
  400e5b:	e9 10 fe ff ff       	jmpq   400c70 <_init+0x28>

0000000000400e60 <connect@plt>:
  400e60:	ff 25 a2 42 20 00    	jmpq   *0x2042a2(%rip)        # 605108 <_GLOBAL_OFFSET_TABLE_+0x108>
  400e66:	68 1e 00 00 00       	pushq  $0x1e
  400e6b:	e9 00 fe ff ff       	jmpq   400c70 <_init+0x28>

0000000000400e70 <__fprintf_chk@plt>:
  400e70:	ff 25 9a 42 20 00    	jmpq   *0x20429a(%rip)        # 605110 <_GLOBAL_OFFSET_TABLE_+0x110>
  400e76:	68 1f 00 00 00       	pushq  $0x1f
  400e7b:	e9 f0 fd ff ff       	jmpq   400c70 <_init+0x28>

0000000000400e80 <__sprintf_chk@plt>:
  400e80:	ff 25 92 42 20 00    	jmpq   *0x204292(%rip)        # 605118 <_GLOBAL_OFFSET_TABLE_+0x118>
  400e86:	68 20 00 00 00       	pushq  $0x20
  400e8b:	e9 e0 fd ff ff       	jmpq   400c70 <_init+0x28>

0000000000400e90 <socket@plt>:
  400e90:	ff 25 8a 42 20 00    	jmpq   *0x20428a(%rip)        # 605120 <_GLOBAL_OFFSET_TABLE_+0x120>
  400e96:	68 21 00 00 00       	pushq  $0x21
  400e9b:	e9 d0 fd ff ff       	jmpq   400c70 <_init+0x28>

Disassembly of section .plt.got:

0000000000400ea0 <.plt.got>:
  400ea0:	ff 25 52 41 20 00    	jmpq   *0x204152(%rip)        # 604ff8 <_DYNAMIC+0x1d0>
  400ea6:	66 90                	xchg   %ax,%ax

Disassembly of section .text:

0000000000400eb0 <_start>:
  400eb0:	31 ed                	xor    %ebp,%ebp
  400eb2:	49 89 d1             	mov    %rdx,%r9
  400eb5:	5e                   	pop    %rsi
  400eb6:	48 89 e2             	mov    %rsp,%rdx
  400eb9:	48 83 e4 f0          	and    $0xfffffffffffffff0,%rsp
  400ebd:	50                   	push   %rax
  400ebe:	54                   	push   %rsp
  400ebf:	49 c7 c0 40 30 40 00 	mov    $0x403040,%r8
  400ec6:	48 c7 c1 d0 2f 40 00 	mov    $0x402fd0,%rcx
  400ecd:	48 c7 c7 b5 11 40 00 	mov    $0x4011b5,%rdi
  400ed4:	e8 77 fe ff ff       	callq  400d50 <__libc_start_main@plt>
  400ed9:	f4                   	hlt    
  400eda:	66 0f 1f 44 00 00    	nopw   0x0(%rax,%rax,1)

0000000000400ee0 <deregister_tm_clones>:
  400ee0:	b8 b7 54 60 00       	mov    $0x6054b7,%eax
  400ee5:	55                   	push   %rbp
  400ee6:	48 2d b0 54 60 00    	sub    $0x6054b0,%rax
  400eec:	48 83 f8 0e          	cmp    $0xe,%rax
  400ef0:	48 89 e5             	mov    %rsp,%rbp
  400ef3:	76 1b                	jbe    400f10 <deregister_tm_clones+0x30>
  400ef5:	b8 00 00 00 00       	mov    $0x0,%eax
  400efa:	48 85 c0             	test   %rax,%rax
  400efd:	74 11                	je     400f10 <deregister_tm_clones+0x30>
  400eff:	5d                   	pop    %rbp
  400f00:	bf b0 54 60 00       	mov    $0x6054b0,%edi
  400f05:	ff e0                	jmpq   *%rax
  400f07:	66 0f 1f 84 00 00 00 	nopw   0x0(%rax,%rax,1)
  400f0e:	00 00 
  400f10:	5d                   	pop    %rbp
  400f11:	c3                   	retq   
  400f12:	0f 1f 40 00          	nopl   0x0(%rax)
  400f16:	66 2e 0f 1f 84 00 00 	nopw   %cs:0x0(%rax,%rax,1)
  400f1d:	00 00 00 

0000000000400f20 <register_tm_clones>:
  400f20:	be b0 54 60 00       	mov    $0x6054b0,%esi
  400f25:	55                   	push   %rbp
  400f26:	48 81 ee b0 54 60 00 	sub    $0x6054b0,%rsi
  400f2d:	48 c1 fe 03          	sar    $0x3,%rsi
  400f31:	48 89 e5             	mov    %rsp,%rbp
  400f34:	48 89 f0             	mov    %rsi,%rax
  400f37:	48 c1 e8 3f          	shr    $0x3f,%rax
  400f3b:	48 01 c6             	add    %rax,%rsi
  400f3e:	48 d1 fe             	sar    %rsi
  400f41:	74 15                	je     400f58 <register_tm_clones+0x38>
  400f43:	b8 00 00 00 00       	mov    $0x0,%eax
  400f48:	48 85 c0             	test   %rax,%rax
  400f4b:	74 0b                	je     400f58 <register_tm_clones+0x38>
  400f4d:	5d                   	pop    %rbp
  400f4e:	bf b0 54 60 00       	mov    $0x6054b0,%edi
  400f53:	ff e0                	jmpq   *%rax
  400f55:	0f 1f 00             	nopl   (%rax)
  400f58:	5d                   	pop    %rbp
  400f59:	c3                   	retq   
  400f5a:	66 0f 1f 44 00 00    	nopw   0x0(%rax,%rax,1)

0000000000400f60 <__do_global_dtors_aux>:
  400f60:	80 3d 81 45 20 00 00 	cmpb   $0x0,0x204581(%rip)        # 6054e8 <completed.7585>
  400f67:	75 11                	jne    400f7a <__do_global_dtors_aux+0x1a>
  400f69:	55                   	push   %rbp
  400f6a:	48 89 e5             	mov    %rsp,%rbp
  400f6d:	e8 6e ff ff ff       	callq  400ee0 <deregister_tm_clones>
  400f72:	5d                   	pop    %rbp
  400f73:	c6 05 6e 45 20 00 01 	movb   $0x1,0x20456e(%rip)        # 6054e8 <completed.7585>
  400f7a:	f3 c3                	repz retq 
  400f7c:	0f 1f 40 00          	nopl   0x0(%rax)

0000000000400f80 <frame_dummy>:
  400f80:	bf 20 4e 60 00       	mov    $0x604e20,%edi
  400f85:	48 83 3f 00          	cmpq   $0x0,(%rdi)
  400f89:	75 05                	jne    400f90 <frame_dummy+0x10>
  400f8b:	eb 93                	jmp    400f20 <register_tm_clones>
  400f8d:	0f 1f 00             	nopl   (%rax)
  400f90:	b8 00 00 00 00       	mov    $0x0,%eax
  400f95:	48 85 c0             	test   %rax,%rax
  400f98:	74 f1                	je     400f8b <frame_dummy+0xb>
  400f9a:	55                   	push   %rbp
  400f9b:	48 89 e5             	mov    %rsp,%rbp
  400f9e:	ff d0                	callq  *%rax
  400fa0:	5d                   	pop    %rbp
  400fa1:	e9 7a ff ff ff       	jmpq   400f20 <register_tm_clones>

0000000000400fa6 <usage>:
  400fa6:	48 83 ec 08          	sub    $0x8,%rsp
  400faa:	48 89 fa             	mov    %rdi,%rdx
  400fad:	83 3d 74 45 20 00 00 	cmpl   $0x0,0x204574(%rip)        # 605528 <is_checker>
  400fb4:	74 3e                	je     400ff4 <usage+0x4e>
  400fb6:	be 58 30 40 00       	mov    $0x403058,%esi
  400fbb:	bf 01 00 00 00       	mov    $0x1,%edi
  400fc0:	b8 00 00 00 00       	mov    $0x0,%eax
  400fc5:	e8 36 fe ff ff       	callq  400e00 <__printf_chk@plt>
  400fca:	bf 90 30 40 00       	mov    $0x403090,%edi
  400fcf:	e8 fc fc ff ff       	callq  400cd0 <puts@plt>
  400fd4:	bf 08 32 40 00       	mov    $0x403208,%edi
  400fd9:	e8 f2 fc ff ff       	callq  400cd0 <puts@plt>
  400fde:	bf b8 30 40 00       	mov    $0x4030b8,%edi
  400fe3:	e8 e8 fc ff ff       	callq  400cd0 <puts@plt>
  400fe8:	bf 22 32 40 00       	mov    $0x403222,%edi
  400fed:	e8 de fc ff ff       	callq  400cd0 <puts@plt>
  400ff2:	eb 32                	jmp    401026 <usage+0x80>
  400ff4:	be 3e 32 40 00       	mov    $0x40323e,%esi
  400ff9:	bf 01 00 00 00       	mov    $0x1,%edi
  400ffe:	b8 00 00 00 00       	mov    $0x0,%eax
  401003:	e8 f8 fd ff ff       	callq  400e00 <__printf_chk@plt>
  401008:	bf e0 30 40 00       	mov    $0x4030e0,%edi
  40100d:	e8 be fc ff ff       	callq  400cd0 <puts@plt>
  401012:	bf 08 31 40 00       	mov    $0x403108,%edi
  401017:	e8 b4 fc ff ff       	callq  400cd0 <puts@plt>
  40101c:	bf 5c 32 40 00       	mov    $0x40325c,%edi
  401021:	e8 aa fc ff ff       	callq  400cd0 <puts@plt>
  401026:	bf 00 00 00 00       	mov    $0x0,%edi
  40102b:	e8 20 fe ff ff       	callq  400e50 <exit@plt>

0000000000401030 <initialize_target>:
  401030:	55                   	push   %rbp
  401031:	53                   	push   %rbx
  401032:	48 81 ec 18 21 00 00 	sub    $0x2118,%rsp
  401039:	89 f5                	mov    %esi,%ebp
  40103b:	64 48 8b 04 25 28 00 	mov    %fs:0x28,%rax
  401042:	00 00 
  401044:	48 89 84 24 08 21 00 	mov    %rax,0x2108(%rsp)
  40104b:	00 
  40104c:	31 c0                	xor    %eax,%eax
  40104e:	89 3d c4 44 20 00    	mov    %edi,0x2044c4(%rip)        # 605518 <check_level>
  401054:	8b 3d 0e 41 20 00    	mov    0x20410e(%rip),%edi        # 605168 <target_id>
  40105a:	e8 48 1f 00 00       	callq  402fa7 <gencookie>
  40105f:	89 05 bf 44 20 00    	mov    %eax,0x2044bf(%rip)        # 605524 <cookie>
  401065:	89 c7                	mov    %eax,%edi
  401067:	e8 3b 1f 00 00       	callq  402fa7 <gencookie>
  40106c:	89 05 ae 44 20 00    	mov    %eax,0x2044ae(%rip)        # 605520 <authkey>
  401072:	8b 05 f0 40 20 00    	mov    0x2040f0(%rip),%eax        # 605168 <target_id>
  401078:	8d 78 01             	lea    0x1(%rax),%edi
  40107b:	e8 20 fc ff ff       	callq  400ca0 <srandom@plt>
  401080:	e8 3b fd ff ff       	callq  400dc0 <random@plt>
  401085:	89 c7                	mov    %eax,%edi
  401087:	e8 03 03 00 00       	callq  40138f <scramble>
  40108c:	89 c3                	mov    %eax,%ebx
  40108e:	85 ed                	test   %ebp,%ebp
  401090:	74 18                	je     4010aa <initialize_target+0x7a>
  401092:	bf 00 00 00 00       	mov    $0x0,%edi
  401097:	e8 14 fd ff ff       	callq  400db0 <time@plt>
  40109c:	89 c7                	mov    %eax,%edi
  40109e:	e8 fd fb ff ff       	callq  400ca0 <srandom@plt>
  4010a3:	e8 18 fd ff ff       	callq  400dc0 <random@plt>
  4010a8:	eb 05                	jmp    4010af <initialize_target+0x7f>
  4010aa:	b8 00 00 00 00       	mov    $0x0,%eax
  4010af:	01 c3                	add    %eax,%ebx
  4010b1:	0f b7 db             	movzwl %bx,%ebx
  4010b4:	8d 04 dd 00 01 00 00 	lea    0x100(,%rbx,8),%eax
  4010bb:	89 c0                	mov    %eax,%eax
  4010bd:	48 89 05 dc 43 20 00 	mov    %rax,0x2043dc(%rip)        # 6054a0 <buf_offset>
  4010c4:	c6 05 7d 50 20 00 72 	movb   $0x72,0x20507d(%rip)        # 606148 <target_prefix>
  4010cb:	83 3d d6 43 20 00 00 	cmpl   $0x0,0x2043d6(%rip)        # 6054a8 <notify>
  4010d2:	0f 84 bb 00 00 00    	je     401193 <initialize_target+0x163>
  4010d8:	83 3d 49 44 20 00 00 	cmpl   $0x0,0x204449(%rip)        # 605528 <is_checker>
  4010df:	0f 85 ae 00 00 00    	jne    401193 <initialize_target+0x163>
  4010e5:	be 00 01 00 00       	mov    $0x100,%esi
  4010ea:	48 89 e7             	mov    %rsp,%rdi
  4010ed:	e8 4e fd ff ff       	callq  400e40 <gethostname@plt>
  4010f2:	85 c0                	test   %eax,%eax
  4010f4:	74 25                	je     40111b <initialize_target+0xeb>
  4010f6:	bf 38 31 40 00       	mov    $0x403138,%edi
  4010fb:	e8 d0 fb ff ff       	callq  400cd0 <puts@plt>
  401100:	bf 08 00 00 00       	mov    $0x8,%edi
  401105:	e8 46 fd ff ff       	callq  400e50 <exit@plt>
  40110a:	48 89 e6             	mov    %rsp,%rsi
  40110d:	e8 6e fb ff ff       	callq  400c80 <strcasecmp@plt>
  401112:	85 c0                	test   %eax,%eax
  401114:	74 21                	je     401137 <initialize_target+0x107>
  401116:	83 c3 01             	add    $0x1,%ebx
  401119:	eb 05                	jmp    401120 <initialize_target+0xf0>
  40111b:	bb 00 00 00 00       	mov    $0x0,%ebx
  401120:	48 63 c3             	movslq %ebx,%rax
  401123:	48 8b 3c c5 80 51 60 	mov    0x605180(,%rax,8),%rdi
  40112a:	00 
  40112b:	48 85 ff             	test   %rdi,%rdi
  40112e:	75 da                	jne    40110a <initialize_target+0xda>
  401130:	b8 00 00 00 00       	mov    $0x0,%eax
  401135:	eb 05                	jmp    40113c <initialize_target+0x10c>
  401137:	b8 01 00 00 00       	mov    $0x1,%eax
  40113c:	85 c0                	test   %eax,%eax
  40113e:	75 1c                	jne    40115c <initialize_target+0x12c>
  401140:	48 89 e2             	mov    %rsp,%rdx
  401143:	be 70 31 40 00       	mov    $0x403170,%esi
  401148:	bf 01 00 00 00       	mov    $0x1,%edi
  40114d:	e8 ae fc ff ff       	callq  400e00 <__printf_chk@plt>
  401152:	bf 08 00 00 00       	mov    $0x8,%edi
  401157:	e8 f4 fc ff ff       	callq  400e50 <exit@plt>
  40115c:	48 8d bc 24 00 01 00 	lea    0x100(%rsp),%rdi
  401163:	00 
  401164:	e8 a8 1b 00 00       	callq  402d11 <init_driver>
  401169:	85 c0                	test   %eax,%eax
  40116b:	79 26                	jns    401193 <initialize_target+0x163>
  40116d:	48 8d 94 24 00 01 00 	lea    0x100(%rsp),%rdx
  401174:	00 
  401175:	be b0 31 40 00       	mov    $0x4031b0,%esi
  40117a:	bf 01 00 00 00       	mov    $0x1,%edi
  40117f:	b8 00 00 00 00       	mov    $0x0,%eax
  401184:	e8 77 fc ff ff       	callq  400e00 <__printf_chk@plt>
  401189:	bf 08 00 00 00       	mov    $0x8,%edi
  40118e:	e8 bd fc ff ff       	callq  400e50 <exit@plt>
  401193:	48 8b 84 24 08 21 00 	mov    0x2108(%rsp),%rax
  40119a:	00 
  40119b:	64 48 33 04 25 28 00 	xor    %fs:0x28,%rax
  4011a2:	00 00 
  4011a4:	74 05                	je     4011ab <initialize_target+0x17b>
  4011a6:	e8 45 fb ff ff       	callq  400cf0 <__stack_chk_fail@plt>
  4011ab:	48 81 c4 18 21 00 00 	add    $0x2118,%rsp
  4011b2:	5b                   	pop    %rbx
  4011b3:	5d                   	pop    %rbp
  4011b4:	c3                   	retq   

00000000004011b5 <main>:
  4011b5:	41 56                	push   %r14
  4011b7:	41 55                	push   %r13
  4011b9:	41 54                	push   %r12
  4011bb:	55                   	push   %rbp
  4011bc:	53                   	push   %rbx
  4011bd:	41 89 fc             	mov    %edi,%r12d
  4011c0:	48 89 f3             	mov    %rsi,%rbx
  4011c3:	be 4c 20 40 00       	mov    $0x40204c,%esi
  4011c8:	bf 0b 00 00 00       	mov    $0xb,%edi
  4011cd:	e8 8e fb ff ff       	callq  400d60 <signal@plt>
  4011d2:	be fe 1f 40 00       	mov    $0x401ffe,%esi
  4011d7:	bf 07 00 00 00       	mov    $0x7,%edi
  4011dc:	e8 7f fb ff ff       	callq  400d60 <signal@plt>
  4011e1:	be 9a 20 40 00       	mov    $0x40209a,%esi
  4011e6:	bf 04 00 00 00       	mov    $0x4,%edi
  4011eb:	e8 70 fb ff ff       	callq  400d60 <signal@plt>
  4011f0:	83 3d 31 43 20 00 00 	cmpl   $0x0,0x204331(%rip)        # 605528 <is_checker>
  4011f7:	74 20                	je     401219 <main+0x64>
  4011f9:	be e8 20 40 00       	mov    $0x4020e8,%esi
  4011fe:	bf 0e 00 00 00       	mov    $0xe,%edi
  401203:	e8 58 fb ff ff       	callq  400d60 <signal@plt>
  401208:	bf 05 00 00 00       	mov    $0x5,%edi
  40120d:	e8 0e fb ff ff       	callq  400d20 <alarm@plt>
  401212:	bd 7a 32 40 00       	mov    $0x40327a,%ebp
  401217:	eb 05                	jmp    40121e <main+0x69>
  401219:	bd 75 32 40 00       	mov    $0x403275,%ebp
  40121e:	48 8b 05 9b 42 20 00 	mov    0x20429b(%rip),%rax        # 6054c0 <stdin@@GLIBC_2.2.5>
  401225:	48 89 05 e4 42 20 00 	mov    %rax,0x2042e4(%rip)        # 605510 <infile>
  40122c:	41 bd 00 00 00 00    	mov    $0x0,%r13d
  401232:	41 be 00 00 00 00    	mov    $0x0,%r14d
  401238:	e9 c6 00 00 00       	jmpq   401303 <main+0x14e>
  40123d:	83 e8 61             	sub    $0x61,%eax
  401240:	3c 10                	cmp    $0x10,%al
  401242:	0f 87 9c 00 00 00    	ja     4012e4 <main+0x12f>
  401248:	0f b6 c0             	movzbl %al,%eax
  40124b:	ff 24 c5 c0 32 40 00 	jmpq   *0x4032c0(,%rax,8)
  401252:	48 8b 3b             	mov    (%rbx),%rdi
  401255:	e8 4c fd ff ff       	callq  400fa6 <usage>
  40125a:	be 24 34 40 00       	mov    $0x403424,%esi
  40125f:	48 8b 3d 62 42 20 00 	mov    0x204262(%rip),%rdi        # 6054c8 <optarg@@GLIBC_2.2.5>
  401266:	e8 a5 fb ff ff       	callq  400e10 <fopen@plt>
  40126b:	48 89 05 9e 42 20 00 	mov    %rax,0x20429e(%rip)        # 605510 <infile>
  401272:	48 85 c0             	test   %rax,%rax
  401275:	0f 85 88 00 00 00    	jne    401303 <main+0x14e>
  40127b:	48 8b 0d 46 42 20 00 	mov    0x204246(%rip),%rcx        # 6054c8 <optarg@@GLIBC_2.2.5>
  401282:	ba 82 32 40 00       	mov    $0x403282,%edx
  401287:	be 01 00 00 00       	mov    $0x1,%esi
  40128c:	48 8b 3d 4d 42 20 00 	mov    0x20424d(%rip),%rdi        # 6054e0 <stderr@@GLIBC_2.2.5>
  401293:	e8 d8 fb ff ff       	callq  400e70 <__fprintf_chk@plt>
  401298:	b8 01 00 00 00       	mov    $0x1,%eax
  40129d:	e9 e4 00 00 00       	jmpq   401386 <main+0x1d1>
  4012a2:	ba 10 00 00 00       	mov    $0x10,%edx
  4012a7:	be 00 00 00 00       	mov    $0x0,%esi
  4012ac:	48 8b 3d 15 42 20 00 	mov    0x204215(%rip),%rdi        # 6054c8 <optarg@@GLIBC_2.2.5>
  4012b3:	e8 78 fb ff ff       	callq  400e30 <strtoul@plt>
  4012b8:	41 89 c6             	mov    %eax,%r14d
  4012bb:	eb 46                	jmp    401303 <main+0x14e>
  4012bd:	ba 0a 00 00 00       	mov    $0xa,%edx
  4012c2:	be 00 00 00 00       	mov    $0x0,%esi
  4012c7:	48 8b 3d fa 41 20 00 	mov    0x2041fa(%rip),%rdi        # 6054c8 <optarg@@GLIBC_2.2.5>
  4012ce:	e8 bd fa ff ff       	callq  400d90 <strtol@plt>
  4012d3:	41 89 c5             	mov    %eax,%r13d
  4012d6:	eb 2b                	jmp    401303 <main+0x14e>
  4012d8:	c7 05 c6 41 20 00 00 	movl   $0x0,0x2041c6(%rip)        # 6054a8 <notify>
  4012df:	00 00 00 
  4012e2:	eb 1f                	jmp    401303 <main+0x14e>
  4012e4:	0f be d2             	movsbl %dl,%edx
  4012e7:	be 9f 32 40 00       	mov    $0x40329f,%esi
  4012ec:	bf 01 00 00 00       	mov    $0x1,%edi
  4012f1:	b8 00 00 00 00       	mov    $0x0,%eax
  4012f6:	e8 05 fb ff ff       	callq  400e00 <__printf_chk@plt>
  4012fb:	48 8b 3b             	mov    (%rbx),%rdi
  4012fe:	e8 a3 fc ff ff       	callq  400fa6 <usage>
  401303:	48 89 ea             	mov    %rbp,%rdx
  401306:	48 89 de             	mov    %rbx,%rsi
  401309:	44 89 e7             	mov    %r12d,%edi
  40130c:	e8 0f fb ff ff       	callq  400e20 <getopt@plt>
  401311:	89 c2                	mov    %eax,%edx
  401313:	3c ff                	cmp    $0xff,%al
  401315:	0f 85 22 ff ff ff    	jne    40123d <main+0x88>
  40131b:	be 01 00 00 00       	mov    $0x1,%esi
  401320:	44 89 ef             	mov    %r13d,%edi
  401323:	e8 08 fd ff ff       	callq  401030 <initialize_target>
  401328:	83 3d f9 41 20 00 00 	cmpl   $0x0,0x2041f9(%rip)        # 605528 <is_checker>
  40132f:	74 2a                	je     40135b <main+0x1a6>
  401331:	44 3b 35 e8 41 20 00 	cmp    0x2041e8(%rip),%r14d        # 605520 <authkey>
  401338:	74 21                	je     40135b <main+0x1a6>
  40133a:	44 89 f2             	mov    %r14d,%edx
  40133d:	be d8 31 40 00       	mov    $0x4031d8,%esi
  401342:	bf 01 00 00 00       	mov    $0x1,%edi
  401347:	b8 00 00 00 00       	mov    $0x0,%eax
  40134c:	e8 af fa ff ff       	callq  400e00 <__printf_chk@plt>
  401351:	b8 00 00 00 00       	mov    $0x0,%eax
  401356:	e8 3f 09 00 00       	callq  401c9a <check_fail>
  40135b:	8b 15 c3 41 20 00    	mov    0x2041c3(%rip),%edx        # 605524 <cookie>
  401361:	be b2 32 40 00       	mov    $0x4032b2,%esi
  401366:	bf 01 00 00 00       	mov    $0x1,%edi
  40136b:	b8 00 00 00 00       	mov    $0x0,%eax
  401370:	e8 8b fa ff ff       	callq  400e00 <__printf_chk@plt>
  401375:	48 8b 3d 24 41 20 00 	mov    0x204124(%rip),%rdi        # 6054a0 <buf_offset>
  40137c:	e8 ba 0d 00 00       	callq  40213b <launch>
  401381:	b8 00 00 00 00       	mov    $0x0,%eax
  401386:	5b                   	pop    %rbx
  401387:	5d                   	pop    %rbp
  401388:	41 5c                	pop    %r12
  40138a:	41 5d                	pop    %r13
  40138c:	41 5e                	pop    %r14
  40138e:	c3                   	retq   

000000000040138f <scramble>:
  40138f:	48 83 ec 38          	sub    $0x38,%rsp
  401393:	64 48 8b 04 25 28 00 	mov    %fs:0x28,%rax
  40139a:	00 00 
  40139c:	48 89 44 24 28       	mov    %rax,0x28(%rsp)
  4013a1:	31 c0                	xor    %eax,%eax
  4013a3:	eb 10                	jmp    4013b5 <scramble+0x26>
  4013a5:	69 d0 4f 34 00 00    	imul   $0x344f,%eax,%edx
  4013ab:	01 fa                	add    %edi,%edx
  4013ad:	89 c1                	mov    %eax,%ecx
  4013af:	89 14 8c             	mov    %edx,(%rsp,%rcx,4)
  4013b2:	83 c0 01             	add    $0x1,%eax
  4013b5:	83 f8 09             	cmp    $0x9,%eax
  4013b8:	76 eb                	jbe    4013a5 <scramble+0x16>
  4013ba:	8b 44 24 14          	mov    0x14(%rsp),%eax
  4013be:	69 c0 a4 0d 00 00    	imul   $0xda4,%eax,%eax
  4013c4:	89 44 24 14          	mov    %eax,0x14(%rsp)
  4013c8:	8b 44 24 1c          	mov    0x1c(%rsp),%eax
  4013cc:	69 c0 3f 1e 00 00    	imul   $0x1e3f,%eax,%eax
  4013d2:	89 44 24 1c          	mov    %eax,0x1c(%rsp)
  4013d6:	8b 44 24 08          	mov    0x8(%rsp),%eax
  4013da:	69 c0 97 07 00 00    	imul   $0x797,%eax,%eax
  4013e0:	89 44 24 08          	mov    %eax,0x8(%rsp)
  4013e4:	8b 44 24 04          	mov    0x4(%rsp),%eax
  4013e8:	69 c0 2b 25 00 00    	imul   $0x252b,%eax,%eax
  4013ee:	89 44 24 04          	mov    %eax,0x4(%rsp)
  4013f2:	8b 44 24 04          	mov    0x4(%rsp),%eax
  4013f6:	69 c0 90 e1 00 00    	imul   $0xe190,%eax,%eax
  4013fc:	89 44 24 04          	mov    %eax,0x4(%rsp)
  401400:	8b 44 24 20          	mov    0x20(%rsp),%eax
  401404:	69 c0 24 dd 00 00    	imul   $0xdd24,%eax,%eax
  40140a:	89 44 24 20          	mov    %eax,0x20(%rsp)
  40140e:	8b 44 24 24          	mov    0x24(%rsp),%eax
  401412:	69 c0 4e 8a 00 00    	imul   $0x8a4e,%eax,%eax
  401418:	89 44 24 24          	mov    %eax,0x24(%rsp)
  40141c:	8b 44 24 24          	mov    0x24(%rsp),%eax
  401420:	69 c0 5d 4a 00 00    	imul   $0x4a5d,%eax,%eax
  401426:	89 44 24 24          	mov    %eax,0x24(%rsp)
  40142a:	8b 44 24 1c          	mov    0x1c(%rsp),%eax
  40142e:	69 c0 77 14 00 00    	imul   $0x1477,%eax,%eax
  401434:	89 44 24 1c          	mov    %eax,0x1c(%rsp)
  401438:	8b 44 24 24          	mov    0x24(%rsp),%eax
  40143c:	69 c0 c0 9e 00 00    	imul   $0x9ec0,%eax,%eax
  401442:	89 44 24 24          	mov    %eax,0x24(%rsp)
  401446:	8b 44 24 20          	mov    0x20(%rsp),%eax
  40144a:	69 c0 e3 c2 00 00    	imul   $0xc2e3,%eax,%eax
  401450:	89 44 24 20          	mov    %eax,0x20(%rsp)
  401454:	8b 44 24 08          	mov    0x8(%rsp),%eax
  401458:	69 c0 f3 eb 00 00    	imul   $0xebf3,%eax,%eax
  40145e:	89 44 24 08          	mov    %eax,0x8(%rsp)
  401462:	8b 44 24 1c          	mov    0x1c(%rsp),%eax
  401466:	69 c0 a3 5f 00 00    	imul   $0x5fa3,%eax,%eax
  40146c:	89 44 24 1c          	mov    %eax,0x1c(%rsp)
  401470:	8b 04 24             	mov    (%rsp),%eax
  401473:	69 c0 3c f9 00 00    	imul   $0xf93c,%eax,%eax
  401479:	89 04 24             	mov    %eax,(%rsp)
  40147c:	8b 44 24 14          	mov    0x14(%rsp),%eax
  401480:	69 c0 76 a2 00 00    	imul   $0xa276,%eax,%eax
  401486:	89 44 24 14          	mov    %eax,0x14(%rsp)
  40148a:	8b 44 24 08          	mov    0x8(%rsp),%eax
  40148e:	69 c0 2f 48 00 00    	imul   $0x482f,%eax,%eax
  401494:	89 44 24 08          	mov    %eax,0x8(%rsp)
  401498:	8b 44 24 20          	mov    0x20(%rsp),%eax
  40149c:	69 c0 09 90 00 00    	imul   $0x9009,%eax,%eax
  4014a2:	89 44 24 20          	mov    %eax,0x20(%rsp)
  4014a6:	8b 44 24 20          	mov    0x20(%rsp),%eax
  4014aa:	69 c0 3d c6 00 00    	imul   $0xc63d,%eax,%eax
  4014b0:	89 44 24 20          	mov    %eax,0x20(%rsp)
  4014b4:	8b 04 24             	mov    (%rsp),%eax
  4014b7:	69 c0 0b 10 00 00    	imul   $0x100b,%eax,%eax
  4014bd:	89 04 24             	mov    %eax,(%rsp)
  4014c0:	8b 44 24 0c          	mov    0xc(%rsp),%eax
  4014c4:	69 c0 b6 07 00 00    	imul   $0x7b6,%eax,%eax
  4014ca:	89 44 24 0c          	mov    %eax,0xc(%rsp)
  4014ce:	8b 44 24 10          	mov    0x10(%rsp),%eax
  4014d2:	69 c0 c7 db 00 00    	imul   $0xdbc7,%eax,%eax
  4014d8:	89 44 24 10          	mov    %eax,0x10(%rsp)
  4014dc:	8b 44 24 1c          	mov    0x1c(%rsp),%eax
  4014e0:	69 c0 57 d2 00 00    	imul   $0xd257,%eax,%eax
  4014e6:	89 44 24 1c          	mov    %eax,0x1c(%rsp)
  4014ea:	8b 44 24 04          	mov    0x4(%rsp),%eax
  4014ee:	69 c0 9c a6 00 00    	imul   $0xa69c,%eax,%eax
  4014f4:	89 44 24 04          	mov    %eax,0x4(%rsp)
  4014f8:	8b 44 24 14          	mov    0x14(%rsp),%eax
  4014fc:	69 c0 50 5c 00 00    	imul   $0x5c50,%eax,%eax
  401502:	89 44 24 14          	mov    %eax,0x14(%rsp)
  401506:	8b 44 24 04          	mov    0x4(%rsp),%eax
  40150a:	69 c0 a4 ec 00 00    	imul   $0xeca4,%eax,%eax
  401510:	89 44 24 04          	mov    %eax,0x4(%rsp)
  401514:	8b 44 24 20          	mov    0x20(%rsp),%eax
  401518:	69 c0 d1 51 00 00    	imul   $0x51d1,%eax,%eax
  40151e:	89 44 24 20          	mov    %eax,0x20(%rsp)
  401522:	8b 04 24             	mov    (%rsp),%eax
  401525:	69 c0 f9 74 00 00    	imul   $0x74f9,%eax,%eax
  40152b:	89 04 24             	mov    %eax,(%rsp)
  40152e:	8b 44 24 10          	mov    0x10(%rsp),%eax
  401532:	69 c0 42 04 00 00    	imul   $0x442,%eax,%eax
  401538:	89 44 24 10          	mov    %eax,0x10(%rsp)
  40153c:	8b 04 24             	mov    (%rsp),%eax
  40153f:	69 c0 33 94 00 00    	imul   $0x9433,%eax,%eax
  401545:	89 04 24             	mov    %eax,(%rsp)
  401548:	8b 44 24 14          	mov    0x14(%rsp),%eax
  40154c:	69 c0 7c e8 00 00    	imul   $0xe87c,%eax,%eax
  401552:	89 44 24 14          	mov    %eax,0x14(%rsp)
  401556:	8b 44 24 14          	mov    0x14(%rsp),%eax
  40155a:	69 c0 31 62 00 00    	imul   $0x6231,%eax,%eax
  401560:	89 44 24 14          	mov    %eax,0x14(%rsp)
  401564:	8b 44 24 20          	mov    0x20(%rsp),%eax
  401568:	69 c0 c3 e6 00 00    	imul   $0xe6c3,%eax,%eax
  40156e:	89 44 24 20          	mov    %eax,0x20(%rsp)
  401572:	8b 44 24 24          	mov    0x24(%rsp),%eax
  401576:	69 c0 1a 97 00 00    	imul   $0x971a,%eax,%eax
  40157c:	89 44 24 24          	mov    %eax,0x24(%rsp)
  401580:	8b 44 24 24          	mov    0x24(%rsp),%eax
  401584:	69 c0 db 89 00 00    	imul   $0x89db,%eax,%eax
  40158a:	89 44 24 24          	mov    %eax,0x24(%rsp)
  40158e:	8b 44 24 24          	mov    0x24(%rsp),%eax
  401592:	69 c0 69 98 00 00    	imul   $0x9869,%eax,%eax
  401598:	89 44 24 24          	mov    %eax,0x24(%rsp)
  40159c:	8b 44 24 04          	mov    0x4(%rsp),%eax
  4015a0:	69 c0 c0 98 00 00    	imul   $0x98c0,%eax,%eax
  4015a6:	89 44 24 04          	mov    %eax,0x4(%rsp)
  4015aa:	8b 44 24 1c          	mov    0x1c(%rsp),%eax
  4015ae:	69 c0 6b 76 00 00    	imul   $0x766b,%eax,%eax
  4015b4:	89 44 24 1c          	mov    %eax,0x1c(%rsp)
  4015b8:	8b 44 24 04          	mov    0x4(%rsp),%eax
  4015bc:	69 c0 46 da 00 00    	imul   $0xda46,%eax,%eax
  4015c2:	89 44 24 04          	mov    %eax,0x4(%rsp)
  4015c6:	8b 44 24 24          	mov    0x24(%rsp),%eax
  4015ca:	69 c0 cc 87 00 00    	imul   $0x87cc,%eax,%eax
  4015d0:	89 44 24 24          	mov    %eax,0x24(%rsp)
  4015d4:	8b 44 24 1c          	mov    0x1c(%rsp),%eax
  4015d8:	69 c0 1b d8 00 00    	imul   $0xd81b,%eax,%eax
  4015de:	89 44 24 1c          	mov    %eax,0x1c(%rsp)
  4015e2:	8b 44 24 18          	mov    0x18(%rsp),%eax
  4015e6:	69 c0 a8 31 00 00    	imul   $0x31a8,%eax,%eax
  4015ec:	89 44 24 18          	mov    %eax,0x18(%rsp)
  4015f0:	8b 44 24 0c          	mov    0xc(%rsp),%eax
  4015f4:	69 c0 f9 23 00 00    	imul   $0x23f9,%eax,%eax
  4015fa:	89 44 24 0c          	mov    %eax,0xc(%rsp)
  4015fe:	8b 44 24 24          	mov    0x24(%rsp),%eax
  401602:	69 c0 b0 67 00 00    	imul   $0x67b0,%eax,%eax
  401608:	89 44 24 24          	mov    %eax,0x24(%rsp)
  40160c:	8b 44 24 1c          	mov    0x1c(%rsp),%eax
  401610:	69 c0 3d 7b 00 00    	imul   $0x7b3d,%eax,%eax
  401616:	89 44 24 1c          	mov    %eax,0x1c(%rsp)
  40161a:	8b 44 24 20          	mov    0x20(%rsp),%eax
  40161e:	69 c0 b9 25 00 00    	imul   $0x25b9,%eax,%eax
  401624:	89 44 24 20          	mov    %eax,0x20(%rsp)
  401628:	8b 44 24 18          	mov    0x18(%rsp),%eax
  40162c:	69 c0 8c 32 00 00    	imul   $0x328c,%eax,%eax
  401632:	89 44 24 18          	mov    %eax,0x18(%rsp)
  401636:	8b 44 24 04          	mov    0x4(%rsp),%eax
  40163a:	69 c0 65 94 00 00    	imul   $0x9465,%eax,%eax
  401640:	89 44 24 04          	mov    %eax,0x4(%rsp)
  401644:	8b 44 24 24          	mov    0x24(%rsp),%eax
  401648:	69 c0 25 7a 00 00    	imul   $0x7a25,%eax,%eax
  40164e:	89 44 24 24          	mov    %eax,0x24(%rsp)
  401652:	8b 44 24 10          	mov    0x10(%rsp),%eax
  401656:	69 c0 50 c6 00 00    	imul   $0xc650,%eax,%eax
  40165c:	89 44 24 10          	mov    %eax,0x10(%rsp)
  401660:	8b 44 24 08          	mov    0x8(%rsp),%eax
  401664:	69 c0 a4 d2 00 00    	imul   $0xd2a4,%eax,%eax
  40166a:	89 44 24 08          	mov    %eax,0x8(%rsp)
  40166e:	8b 44 24 08          	mov    0x8(%rsp),%eax
  401672:	69 c0 91 95 00 00    	imul   $0x9591,%eax,%eax
  401678:	89 44 24 08          	mov    %eax,0x8(%rsp)
  40167c:	8b 04 24             	mov    (%rsp),%eax
  40167f:	69 c0 eb d2 00 00    	imul   $0xd2eb,%eax,%eax
  401685:	89 04 24             	mov    %eax,(%rsp)
  401688:	8b 44 24 14          	mov    0x14(%rsp),%eax
  40168c:	69 c0 7c d6 00 00    	imul   $0xd67c,%eax,%eax
  401692:	89 44 24 14          	mov    %eax,0x14(%rsp)
  401696:	8b 44 24 08          	mov    0x8(%rsp),%eax
  40169a:	69 c0 04 29 00 00    	imul   $0x2904,%eax,%eax
  4016a0:	89 44 24 08          	mov    %eax,0x8(%rsp)
  4016a4:	8b 44 24 04          	mov    0x4(%rsp),%eax
  4016a8:	69 c0 c8 e3 00 00    	imul   $0xe3c8,%eax,%eax
  4016ae:	89 44 24 04          	mov    %eax,0x4(%rsp)
  4016b2:	8b 44 24 20          	mov    0x20(%rsp),%eax
  4016b6:	69 c0 b9 d2 00 00    	imul   $0xd2b9,%eax,%eax
  4016bc:	89 44 24 20          	mov    %eax,0x20(%rsp)
  4016c0:	8b 44 24 20          	mov    0x20(%rsp),%eax
  4016c4:	69 c0 0b 2b 00 00    	imul   $0x2b0b,%eax,%eax
  4016ca:	89 44 24 20          	mov    %eax,0x20(%rsp)
  4016ce:	8b 44 24 14          	mov    0x14(%rsp),%eax
  4016d2:	69 c0 11 bc 00 00    	imul   $0xbc11,%eax,%eax
  4016d8:	89 44 24 14          	mov    %eax,0x14(%rsp)
  4016dc:	8b 44 24 14          	mov    0x14(%rsp),%eax
  4016e0:	69 c0 ed 1e 00 00    	imul   $0x1eed,%eax,%eax
  4016e6:	89 44 24 14          	mov    %eax,0x14(%rsp)
  4016ea:	8b 44 24 18          	mov    0x18(%rsp),%eax
  4016ee:	69 c0 9e 8e 00 00    	imul   $0x8e9e,%eax,%eax
  4016f4:	89 44 24 18          	mov    %eax,0x18(%rsp)
  4016f8:	8b 44 24 20          	mov    0x20(%rsp),%eax
  4016fc:	69 c0 09 9b 00 00    	imul   $0x9b09,%eax,%eax
  401702:	89 44 24 20          	mov    %eax,0x20(%rsp)
  401706:	8b 44 24 20          	mov    0x20(%rsp),%eax
  40170a:	69 c0 91 cc 00 00    	imul   $0xcc91,%eax,%eax
  401710:	89 44 24 20          	mov    %eax,0x20(%rsp)
  401714:	8b 44 24 08          	mov    0x8(%rsp),%eax
  401718:	69 c0 79 da 00 00    	imul   $0xda79,%eax,%eax
  40171e:	89 44 24 08          	mov    %eax,0x8(%rsp)
  401722:	8b 44 24 10          	mov    0x10(%rsp),%eax
  401726:	69 c0 ee 5a 00 00    	imul   $0x5aee,%eax,%eax
  40172c:	89 44 24 10          	mov    %eax,0x10(%rsp)
  401730:	8b 04 24             	mov    (%rsp),%eax
  401733:	69 c0 b6 4a 00 00    	imul   $0x4ab6,%eax,%eax
  401739:	89 04 24             	mov    %eax,(%rsp)
  40173c:	8b 44 24 0c          	mov    0xc(%rsp),%eax
  401740:	69 c0 84 ff 00 00    	imul   $0xff84,%eax,%eax
  401746:	89 44 24 0c          	mov    %eax,0xc(%rsp)
  40174a:	8b 44 24 0c          	mov    0xc(%rsp),%eax
  40174e:	69 c0 f7 98 00 00    	imul   $0x98f7,%eax,%eax
  401754:	89 44 24 0c          	mov    %eax,0xc(%rsp)
  401758:	8b 44 24 1c          	mov    0x1c(%rsp),%eax
  40175c:	69 c0 43 ec 00 00    	imul   $0xec43,%eax,%eax
  401762:	89 44 24 1c          	mov    %eax,0x1c(%rsp)
  401766:	8b 44 24 24          	mov    0x24(%rsp),%eax
  40176a:	69 c0 a0 7f 00 00    	imul   $0x7fa0,%eax,%eax
  401770:	89 44 24 24          	mov    %eax,0x24(%rsp)
  401774:	8b 44 24 1c          	mov    0x1c(%rsp),%eax
  401778:	69 c0 bb cd 00 00    	imul   $0xcdbb,%eax,%eax
  40177e:	89 44 24 1c          	mov    %eax,0x1c(%rsp)
  401782:	8b 44 24 04          	mov    0x4(%rsp),%eax
  401786:	69 c0 66 16 00 00    	imul   $0x1666,%eax,%eax
  40178c:	89 44 24 04          	mov    %eax,0x4(%rsp)
  401790:	8b 44 24 04          	mov    0x4(%rsp),%eax
  401794:	69 c0 d9 78 00 00    	imul   $0x78d9,%eax,%eax
  40179a:	89 44 24 04          	mov    %eax,0x4(%rsp)
  40179e:	8b 44 24 0c          	mov    0xc(%rsp),%eax
  4017a2:	69 c0 27 97 00 00    	imul   $0x9727,%eax,%eax
  4017a8:	89 44 24 0c          	mov    %eax,0xc(%rsp)
  4017ac:	8b 44 24 24          	mov    0x24(%rsp),%eax
  4017b0:	69 c0 2c d4 00 00    	imul   $0xd42c,%eax,%eax
  4017b6:	89 44 24 24          	mov    %eax,0x24(%rsp)
  4017ba:	8b 04 24             	mov    (%rsp),%eax
  4017bd:	69 c0 3a 6c 00 00    	imul   $0x6c3a,%eax,%eax
  4017c3:	89 04 24             	mov    %eax,(%rsp)
  4017c6:	8b 44 24 14          	mov    0x14(%rsp),%eax
  4017ca:	69 c0 bb fa 00 00    	imul   $0xfabb,%eax,%eax
  4017d0:	89 44 24 14          	mov    %eax,0x14(%rsp)
  4017d4:	8b 44 24 08          	mov    0x8(%rsp),%eax
  4017d8:	69 c0 f4 23 00 00    	imul   $0x23f4,%eax,%eax
  4017de:	89 44 24 08          	mov    %eax,0x8(%rsp)
  4017e2:	8b 44 24 08          	mov    0x8(%rsp),%eax
  4017e6:	69 c0 b1 36 00 00    	imul   $0x36b1,%eax,%eax
  4017ec:	89 44 24 08          	mov    %eax,0x8(%rsp)
  4017f0:	8b 44 24 1c          	mov    0x1c(%rsp),%eax
  4017f4:	69 c0 02 0e 00 00    	imul   $0xe02,%eax,%eax
  4017fa:	89 44 24 1c          	mov    %eax,0x1c(%rsp)
  4017fe:	8b 44 24 08          	mov    0x8(%rsp),%eax
  401802:	69 c0 38 9f 00 00    	imul   $0x9f38,%eax,%eax
  401808:	89 44 24 08          	mov    %eax,0x8(%rsp)
  40180c:	8b 44 24 10          	mov    0x10(%rsp),%eax
  401810:	69 c0 32 bf 00 00    	imul   $0xbf32,%eax,%eax
  401816:	89 44 24 10          	mov    %eax,0x10(%rsp)
  40181a:	8b 44 24 14          	mov    0x14(%rsp),%eax
  40181e:	69 c0 ff 38 00 00    	imul   $0x38ff,%eax,%eax
  401824:	89 44 24 14          	mov    %eax,0x14(%rsp)
  401828:	8b 44 24 14          	mov    0x14(%rsp),%eax
  40182c:	69 c0 2b 71 00 00    	imul   $0x712b,%eax,%eax
  401832:	89 44 24 14          	mov    %eax,0x14(%rsp)
  401836:	8b 44 24 24          	mov    0x24(%rsp),%eax
  40183a:	69 c0 9c c7 00 00    	imul   $0xc79c,%eax,%eax
  401840:	89 44 24 24          	mov    %eax,0x24(%rsp)
  401844:	8b 44 24 0c          	mov    0xc(%rsp),%eax
  401848:	69 c0 8a 3a 00 00    	imul   $0x3a8a,%eax,%eax
  40184e:	89 44 24 0c          	mov    %eax,0xc(%rsp)
  401852:	8b 44 24 24          	mov    0x24(%rsp),%eax
  401856:	69 c0 34 54 00 00    	imul   $0x5434,%eax,%eax
  40185c:	89 44 24 24          	mov    %eax,0x24(%rsp)
  401860:	8b 44 24 18          	mov    0x18(%rsp),%eax
  401864:	69 c0 cc 35 00 00    	imul   $0x35cc,%eax,%eax
  40186a:	89 44 24 18          	mov    %eax,0x18(%rsp)
  40186e:	8b 44 24 20          	mov    0x20(%rsp),%eax
  401872:	69 c0 62 92 00 00    	imul   $0x9262,%eax,%eax
  401878:	89 44 24 20          	mov    %eax,0x20(%rsp)
  40187c:	8b 44 24 24          	mov    0x24(%rsp),%eax
  401880:	69 c0 f9 01 00 00    	imul   $0x1f9,%eax,%eax
  401886:	89 44 24 24          	mov    %eax,0x24(%rsp)
  40188a:	8b 44 24 04          	mov    0x4(%rsp),%eax
  40188e:	69 c0 09 83 00 00    	imul   $0x8309,%eax,%eax
  401894:	89 44 24 04          	mov    %eax,0x4(%rsp)
  401898:	8b 44 24 18          	mov    0x18(%rsp),%eax
  40189c:	69 c0 59 c9 00 00    	imul   $0xc959,%eax,%eax
  4018a2:	89 44 24 18          	mov    %eax,0x18(%rsp)
  4018a6:	8b 44 24 08          	mov    0x8(%rsp),%eax
  4018aa:	69 c0 76 75 00 00    	imul   $0x7576,%eax,%eax
  4018b0:	89 44 24 08          	mov    %eax,0x8(%rsp)
  4018b4:	8b 44 24 0c          	mov    0xc(%rsp),%eax
  4018b8:	69 c0 11 45 00 00    	imul   $0x4511,%eax,%eax
  4018be:	89 44 24 0c          	mov    %eax,0xc(%rsp)
  4018c2:	8b 44 24 14          	mov    0x14(%rsp),%eax
  4018c6:	69 c0 bc eb 00 00    	imul   $0xebbc,%eax,%eax
  4018cc:	89 44 24 14          	mov    %eax,0x14(%rsp)
  4018d0:	8b 44 24 10          	mov    0x10(%rsp),%eax
  4018d4:	69 c0 c7 3d 00 00    	imul   $0x3dc7,%eax,%eax
  4018da:	89 44 24 10          	mov    %eax,0x10(%rsp)
  4018de:	8b 44 24 24          	mov    0x24(%rsp),%eax
  4018e2:	69 c0 cc ab 00 00    	imul   $0xabcc,%eax,%eax
  4018e8:	89 44 24 24          	mov    %eax,0x24(%rsp)
  4018ec:	ba 00 00 00 00       	mov    $0x0,%edx
  4018f1:	b8 00 00 00 00       	mov    $0x0,%eax
  4018f6:	eb 0a                	jmp    401902 <scramble+0x573>
  4018f8:	89 d1                	mov    %edx,%ecx
  4018fa:	8b 0c 8c             	mov    (%rsp,%rcx,4),%ecx
  4018fd:	01 c8                	add    %ecx,%eax
  4018ff:	83 c2 01             	add    $0x1,%edx
  401902:	83 fa 09             	cmp    $0x9,%edx
  401905:	76 f1                	jbe    4018f8 <scramble+0x569>
  401907:	48 8b 74 24 28       	mov    0x28(%rsp),%rsi
  40190c:	64 48 33 34 25 28 00 	xor    %fs:0x28,%rsi
  401913:	00 00 
  401915:	74 05                	je     40191c <scramble+0x58d>
  401917:	e8 d4 f3 ff ff       	callq  400cf0 <__stack_chk_fail@plt>
  40191c:	48 83 c4 38          	add    $0x38,%rsp
  401920:	c3                   	retq   

0000000000401921 <getbuf>:
  401921:	48 83 ec 28          	sub    $0x28,%rsp
  401925:	48 89 e7             	mov    %rsp,%rdi
  401928:	e8 a2 03 00 00       	callq  401ccf <Gets>
  40192d:	b8 01 00 00 00       	mov    $0x1,%eax
  401932:	48 83 c4 28          	add    $0x28,%rsp
  401936:	c3                   	retq   

0000000000401937 <touch1>:
  401937:	48 83 ec 08          	sub    $0x8,%rsp
  40193b:	c7 05 d7 3b 20 00 01 	movl   $0x1,0x203bd7(%rip)        # 60551c <vlevel>
  401942:	00 00 00 
  401945:	bf 2d 34 40 00       	mov    $0x40342d,%edi
  40194a:	e8 81 f3 ff ff       	callq  400cd0 <puts@plt>
  40194f:	bf 01 00 00 00       	mov    $0x1,%edi
  401954:	e8 bb 05 00 00       	callq  401f14 <validate>
  401959:	bf 00 00 00 00       	mov    $0x0,%edi
  40195e:	e8 ed f4 ff ff       	callq  400e50 <exit@plt>

0000000000401963 <touch2>:
  401963:	48 83 ec 08          	sub    $0x8,%rsp
  401967:	89 fa                	mov    %edi,%edx
  401969:	c7 05 a9 3b 20 00 02 	movl   $0x2,0x203ba9(%rip)        # 60551c <vlevel>
  401970:	00 00 00 
  401973:	39 3d ab 3b 20 00    	cmp    %edi,0x203bab(%rip)        # 605524 <cookie>
  401979:	75 20                	jne    40199b <touch2+0x38>
  40197b:	be 50 34 40 00       	mov    $0x403450,%esi
  401980:	bf 01 00 00 00       	mov    $0x1,%edi
  401985:	b8 00 00 00 00       	mov    $0x0,%eax
  40198a:	e8 71 f4 ff ff       	callq  400e00 <__printf_chk@plt>
  40198f:	bf 02 00 00 00       	mov    $0x2,%edi
  401994:	e8 7b 05 00 00       	callq  401f14 <validate>
  401999:	eb 1e                	jmp    4019b9 <touch2+0x56>
  40199b:	be 78 34 40 00       	mov    $0x403478,%esi
  4019a0:	bf 01 00 00 00       	mov    $0x1,%edi
  4019a5:	b8 00 00 00 00       	mov    $0x0,%eax
  4019aa:	e8 51 f4 ff ff       	callq  400e00 <__printf_chk@plt>
  4019af:	bf 02 00 00 00       	mov    $0x2,%edi
  4019b4:	e8 1d 06 00 00       	callq  401fd6 <fail>
  4019b9:	bf 00 00 00 00       	mov    $0x0,%edi
  4019be:	e8 8d f4 ff ff       	callq  400e50 <exit@plt>

00000000004019c3 <hexmatch>:
  4019c3:	41 54                	push   %r12
  4019c5:	55                   	push   %rbp
  4019c6:	53                   	push   %rbx
  4019c7:	48 83 c4 80          	add    $0xffffffffffffff80,%rsp
  4019cb:	89 fd                	mov    %edi,%ebp
  4019cd:	48 89 f3             	mov    %rsi,%rbx
  4019d0:	64 48 8b 04 25 28 00 	mov    %fs:0x28,%rax
  4019d7:	00 00 
  4019d9:	48 89 44 24 78       	mov    %rax,0x78(%rsp)
  4019de:	31 c0                	xor    %eax,%eax
  4019e0:	e8 db f3 ff ff       	callq  400dc0 <random@plt>
  4019e5:	48 89 c1             	mov    %rax,%rcx
  4019e8:	48 ba 0b d7 a3 70 3d 	movabs $0xa3d70a3d70a3d70b,%rdx
  4019ef:	0a d7 a3 
  4019f2:	48 f7 ea             	imul   %rdx
  4019f5:	48 01 ca             	add    %rcx,%rdx
  4019f8:	48 c1 fa 06          	sar    $0x6,%rdx
  4019fc:	48 89 c8             	mov    %rcx,%rax
  4019ff:	48 c1 f8 3f          	sar    $0x3f,%rax
  401a03:	48 29 c2             	sub    %rax,%rdx
  401a06:	48 8d 04 92          	lea    (%rdx,%rdx,4),%rax
  401a0a:	48 8d 14 80          	lea    (%rax,%rax,4),%rdx
  401a0e:	48 8d 04 95 00 00 00 	lea    0x0(,%rdx,4),%rax
  401a15:	00 
  401a16:	48 29 c1             	sub    %rax,%rcx
  401a19:	4c 8d 24 0c          	lea    (%rsp,%rcx,1),%r12
  401a1d:	41 89 e8             	mov    %ebp,%r8d
  401a20:	b9 4a 34 40 00       	mov    $0x40344a,%ecx
  401a25:	48 c7 c2 ff ff ff ff 	mov    $0xffffffffffffffff,%rdx
  401a2c:	be 01 00 00 00       	mov    $0x1,%esi
  401a31:	4c 89 e7             	mov    %r12,%rdi
  401a34:	b8 00 00 00 00       	mov    $0x0,%eax
  401a39:	e8 42 f4 ff ff       	callq  400e80 <__sprintf_chk@plt>
  401a3e:	ba 09 00 00 00       	mov    $0x9,%edx
  401a43:	4c 89 e6             	mov    %r12,%rsi
  401a46:	48 89 df             	mov    %rbx,%rdi
  401a49:	e8 62 f2 ff ff       	callq  400cb0 <strncmp@plt>
  401a4e:	85 c0                	test   %eax,%eax
  401a50:	0f 94 c0             	sete   %al
  401a53:	48 8b 5c 24 78       	mov    0x78(%rsp),%rbx
  401a58:	64 48 33 1c 25 28 00 	xor    %fs:0x28,%rbx
  401a5f:	00 00 
  401a61:	74 05                	je     401a68 <hexmatch+0xa5>
  401a63:	e8 88 f2 ff ff       	callq  400cf0 <__stack_chk_fail@plt>
  401a68:	0f b6 c0             	movzbl %al,%eax
  401a6b:	48 83 ec 80          	sub    $0xffffffffffffff80,%rsp
  401a6f:	5b                   	pop    %rbx
  401a70:	5d                   	pop    %rbp
  401a71:	41 5c                	pop    %r12
  401a73:	c3                   	retq   

0000000000401a74 <touch3>:
  401a74:	53                   	push   %rbx
  401a75:	48 89 fb             	mov    %rdi,%rbx
  401a78:	c7 05 9a 3a 20 00 03 	movl   $0x3,0x203a9a(%rip)        # 60551c <vlevel>
  401a7f:	00 00 00 
  401a82:	48 89 fe             	mov    %rdi,%rsi
  401a85:	8b 3d 99 3a 20 00    	mov    0x203a99(%rip),%edi        # 605524 <cookie>
  401a8b:	e8 33 ff ff ff       	callq  4019c3 <hexmatch>
  401a90:	85 c0                	test   %eax,%eax
  401a92:	74 23                	je     401ab7 <touch3+0x43>
  401a94:	48 89 da             	mov    %rbx,%rdx
  401a97:	be a0 34 40 00       	mov    $0x4034a0,%esi
  401a9c:	bf 01 00 00 00       	mov    $0x1,%edi
  401aa1:	b8 00 00 00 00       	mov    $0x0,%eax
  401aa6:	e8 55 f3 ff ff       	callq  400e00 <__printf_chk@plt>
  401aab:	bf 03 00 00 00       	mov    $0x3,%edi
  401ab0:	e8 5f 04 00 00       	callq  401f14 <validate>
  401ab5:	eb 21                	jmp    401ad8 <touch3+0x64>
  401ab7:	48 89 da             	mov    %rbx,%rdx
  401aba:	be c8 34 40 00       	mov    $0x4034c8,%esi
  401abf:	bf 01 00 00 00       	mov    $0x1,%edi
  401ac4:	b8 00 00 00 00       	mov    $0x0,%eax
  401ac9:	e8 32 f3 ff ff       	callq  400e00 <__printf_chk@plt>
  401ace:	bf 03 00 00 00       	mov    $0x3,%edi
  401ad3:	e8 fe 04 00 00       	callq  401fd6 <fail>
  401ad8:	bf 00 00 00 00       	mov    $0x0,%edi
  401add:	e8 6e f3 ff ff       	callq  400e50 <exit@plt>

0000000000401ae2 <test>:
  401ae2:	48 83 ec 08          	sub    $0x8,%rsp
  401ae6:	b8 00 00 00 00       	mov    $0x0,%eax
  401aeb:	e8 31 fe ff ff       	callq  401921 <getbuf>
  401af0:	89 c2                	mov    %eax,%edx
  401af2:	be f0 34 40 00       	mov    $0x4034f0,%esi
  401af7:	bf 01 00 00 00       	mov    $0x1,%edi
  401afc:	b8 00 00 00 00       	mov    $0x0,%eax
  401b01:	e8 fa f2 ff ff       	callq  400e00 <__printf_chk@plt>
  401b06:	48 83 c4 08          	add    $0x8,%rsp
  401b0a:	c3                   	retq   

0000000000401b0b <start_farm>:
  401b0b:	b8 01 00 00 00       	mov    $0x1,%eax
  401b10:	c3                   	retq   

0000000000401b11 <getval_224>:
  401b11:	b8 50 90 c3 b2       	mov    $0xb2c39050,%eax
  401b16:	c3                   	retq   

0000000000401b17 <addval_201>:
  401b17:	8d 87 7a 11 58 90    	lea    -0x6fa7ee86(%rdi),%eax
  401b1d:	c3                   	retq   

0000000000401b1e <getval_337>:
  401b1e:	b8 48 8d c7 90       	mov    $0x90c78d48,%eax
  401b23:	c3                   	retq   

0000000000401b24 <setval_198>:
  401b24:	c7 07 48 89 c7 91    	movl   $0x91c78948,(%rdi)
  401b2a:	c3                   	retq   

0000000000401b2b <setval_299>:
  401b2b:	c7 07 48 89 c7 90    	movl   $0x90c78948,(%rdi)
  401b31:	c3                   	retq   

0000000000401b32 <getval_315>:
  401b32:	b8 dd 8c 48 58       	mov    $0x58488cdd,%eax
  401b37:	c3                   	retq   

0000000000401b38 <addval_133>:
  401b38:	8d 87 48 90 90 c3    	lea    -0x3c6f6fb8(%rdi),%eax
  401b3e:	c3                   	retq   

0000000000401b3f <addval_347>:
  401b3f:	8d 87 48 89 c7 90    	lea    -0x6f3876b8(%rdi),%eax
  401b45:	c3                   	retq   

0000000000401b46 <mid_farm>:
  401b46:	b8 01 00 00 00       	mov    $0x1,%eax
  401b4b:	c3                   	retq   

0000000000401b4c <add_xy>:
  401b4c:	48 8d 04 37          	lea    (%rdi,%rsi,1),%rax
  401b50:	c3                   	retq   

0000000000401b51 <getval_490>:
  401b51:	b8 8b ce 90 c3       	mov    $0xc390ce8b,%eax
  401b56:	c3                   	retq   

0000000000401b57 <addval_422>:
  401b57:	8d 87 89 d1 78 c0    	lea    -0x3f872e77(%rdi),%eax
  401b5d:	c3                   	retq   

0000000000401b5e <getval_203>:
  401b5e:	b8 89 c2 c4 c0       	mov    $0xc0c4c289,%eax
  401b63:	c3                   	retq   

0000000000401b64 <setval_489>:
  401b64:	c7 07 99 d1 c3 19    	movl   $0x19c3d199,(%rdi)
  401b6a:	c3                   	retq   

0000000000401b6b <getval_296>:
  401b6b:	b8 89 ce 90 c3       	mov    $0xc390ce89,%eax
  401b70:	c3                   	retq   

0000000000401b71 <setval_112>:
  401b71:	c7 07 89 d1 18 c9    	movl   $0xc918d189,(%rdi)
  401b77:	c3                   	retq   

0000000000401b78 <getval_419>:
  401b78:	b8 a9 d1 38 d2       	mov    $0xd238d1a9,%eax
  401b7d:	c3                   	retq   

0000000000401b7e <setval_329>:
  401b7e:	c7 07 48 89 e0 c7    	movl   $0xc7e08948,(%rdi)
  401b84:	c3                   	retq   

0000000000401b85 <setval_172>:
  401b85:	c7 07 48 89 e0 c7    	movl   $0xc7e08948,(%rdi)
  401b8b:	c3                   	retq   

0000000000401b8c <addval_256>:
  401b8c:	8d 87 8d c2 08 db    	lea    -0x24f73d73(%rdi),%eax
  401b92:	c3                   	retq   

0000000000401b93 <setval_395>:
  401b93:	c7 07 a9 ce 84 d2    	movl   $0xd284cea9,(%rdi)
  401b99:	c3                   	retq   

0000000000401b9a <addval_396>:
  401b9a:	8d 87 a9 ce 84 d2    	lea    -0x2d7b3157(%rdi),%eax
  401ba0:	c3                   	retq   

0000000000401ba1 <setval_434>:
  401ba1:	c7 07 48 89 e0 90    	movl   $0x90e08948,(%rdi)
  401ba7:	c3                   	retq   

0000000000401ba8 <getval_211>:
  401ba8:	b8 89 ce 78 d2       	mov    $0xd278ce89,%eax
  401bad:	c3                   	retq   

0000000000401bae <addval_148>:
  401bae:	8d 87 89 c2 60 c0    	lea    -0x3f9f3d77(%rdi),%eax
  401bb4:	c3                   	retq   

0000000000401bb5 <setval_467>:
  401bb5:	c7 07 5c 89 d1 c3    	movl   $0xc3d1895c,(%rdi)
  401bbb:	c3                   	retq   

0000000000401bbc <addval_381>:
  401bbc:	8d 87 09 d1 38 d2    	lea    -0x2dc72ef7(%rdi),%eax
  401bc2:	c3                   	retq   

0000000000401bc3 <setval_413>:
  401bc3:	c7 07 89 d1 90 c3    	movl   $0xc390d189,(%rdi)
  401bc9:	c3                   	retq   

0000000000401bca <addval_151>:
  401bca:	8d 87 48 89 e0 c2    	lea    -0x3d1f76b8(%rdi),%eax
  401bd0:	c3                   	retq   

0000000000401bd1 <addval_457>:
  401bd1:	8d 87 89 d1 78 d2    	lea    -0x2d872e77(%rdi),%eax
  401bd7:	c3                   	retq   

0000000000401bd8 <addval_182>:
  401bd8:	8d 87 64 40 89 e0    	lea    -0x1f76bf9c(%rdi),%eax
  401bde:	c3                   	retq   

0000000000401bdf <setval_238>:
  401bdf:	c7 07 d3 89 c2 90    	movl   $0x90c289d3,(%rdi)
  401be5:	c3                   	retq   

0000000000401be6 <setval_458>:
  401be6:	c7 07 89 c2 a4 c9    	movl   $0xc9a4c289,(%rdi)
  401bec:	c3                   	retq   

0000000000401bed <addval_122>:
  401bed:	8d 87 d7 89 ce c2    	lea    -0x3d317629(%rdi),%eax
  401bf3:	c3                   	retq   

0000000000401bf4 <getval_157>:
  401bf4:	b8 48 c9 e0 c3       	mov    $0xc3e0c948,%eax
  401bf9:	c3                   	retq   

0000000000401bfa <getval_460>:
  401bfa:	b8 48 89 e0 c3       	mov    $0xc3e08948,%eax
  401bff:	c3                   	retq   

0000000000401c00 <setval_356>:
  401c00:	c7 07 89 ce 90 c3    	movl   $0xc390ce89,(%rdi)
  401c06:	c3                   	retq   

0000000000401c07 <getval_233>:
  401c07:	b8 89 c2 84 db       	mov    $0xdb84c289,%eax
  401c0c:	c3                   	retq   

0000000000401c0d <setval_137>:
  401c0d:	c7 07 99 ce 20 c0    	movl   $0xc020ce99,(%rdi)
  401c13:	c3                   	retq   

0000000000401c14 <setval_293>:
  401c14:	c7 07 a9 c2 20 d2    	movl   $0xd220c2a9,(%rdi)
  401c1a:	c3                   	retq   

0000000000401c1b <setval_216>:
  401c1b:	c7 07 49 89 e0 c3    	movl   $0xc3e08949,(%rdi)
  401c21:	c3                   	retq   

0000000000401c22 <setval_423>:
  401c22:	c7 07 89 c2 48 d2    	movl   $0xd248c289,(%rdi)
  401c28:	c3                   	retq   

0000000000401c29 <end_farm>:
  401c29:	b8 01 00 00 00       	mov    $0x1,%eax
  401c2e:	c3                   	retq   

0000000000401c2f <save_char>:
  401c2f:	8b 05 0f 45 20 00    	mov    0x20450f(%rip),%eax        # 606144 <gets_cnt>
  401c35:	3d ff 03 00 00       	cmp    $0x3ff,%eax
  401c3a:	7f 49                	jg     401c85 <save_char+0x56>
  401c3c:	8d 14 40             	lea    (%rax,%rax,2),%edx
  401c3f:	89 f9                	mov    %edi,%ecx
  401c41:	c0 e9 04             	shr    $0x4,%cl
  401c44:	83 e1 0f             	and    $0xf,%ecx
  401c47:	0f b6 b1 10 38 40 00 	movzbl 0x403810(%rcx),%esi
  401c4e:	48 63 ca             	movslq %edx,%rcx
  401c51:	40 88 b1 40 55 60 00 	mov    %sil,0x605540(%rcx)
  401c58:	8d 4a 01             	lea    0x1(%rdx),%ecx
  401c5b:	83 e7 0f             	and    $0xf,%edi
  401c5e:	0f b6 b7 10 38 40 00 	movzbl 0x403810(%rdi),%esi
  401c65:	48 63 c9             	movslq %ecx,%rcx
  401c68:	40 88 b1 40 55 60 00 	mov    %sil,0x605540(%rcx)
  401c6f:	83 c2 02             	add    $0x2,%edx
  401c72:	48 63 d2             	movslq %edx,%rdx
  401c75:	c6 82 40 55 60 00 20 	movb   $0x20,0x605540(%rdx)
  401c7c:	83 c0 01             	add    $0x1,%eax
  401c7f:	89 05 bf 44 20 00    	mov    %eax,0x2044bf(%rip)        # 606144 <gets_cnt>
  401c85:	f3 c3                	repz retq 

0000000000401c87 <save_term>:
  401c87:	8b 05 b7 44 20 00    	mov    0x2044b7(%rip),%eax        # 606144 <gets_cnt>
  401c8d:	8d 04 40             	lea    (%rax,%rax,2),%eax
  401c90:	48 98                	cltq   
  401c92:	c6 80 40 55 60 00 00 	movb   $0x0,0x605540(%rax)
  401c99:	c3                   	retq   

0000000000401c9a <check_fail>:
  401c9a:	48 83 ec 08          	sub    $0x8,%rsp
  401c9e:	0f be 15 a3 44 20 00 	movsbl 0x2044a3(%rip),%edx        # 606148 <target_prefix>
  401ca5:	41 b8 40 55 60 00    	mov    $0x605540,%r8d
  401cab:	8b 0d 67 38 20 00    	mov    0x203867(%rip),%ecx        # 605518 <check_level>
  401cb1:	be 13 35 40 00       	mov    $0x403513,%esi
  401cb6:	bf 01 00 00 00       	mov    $0x1,%edi
  401cbb:	b8 00 00 00 00       	mov    $0x0,%eax
  401cc0:	e8 3b f1 ff ff       	callq  400e00 <__printf_chk@plt>
  401cc5:	bf 01 00 00 00       	mov    $0x1,%edi
  401cca:	e8 81 f1 ff ff       	callq  400e50 <exit@plt>

0000000000401ccf <Gets>:
  401ccf:	41 54                	push   %r12
  401cd1:	55                   	push   %rbp
  401cd2:	53                   	push   %rbx
  401cd3:	49 89 fc             	mov    %rdi,%r12
  401cd6:	c7 05 64 44 20 00 00 	movl   $0x0,0x204464(%rip)        # 606144 <gets_cnt>
  401cdd:	00 00 00 
  401ce0:	48 89 fb             	mov    %rdi,%rbx
  401ce3:	eb 11                	jmp    401cf6 <Gets+0x27>
  401ce5:	48 8d 6b 01          	lea    0x1(%rbx),%rbp
  401ce9:	88 03                	mov    %al,(%rbx)
  401ceb:	0f b6 f8             	movzbl %al,%edi
  401cee:	e8 3c ff ff ff       	callq  401c2f <save_char>
  401cf3:	48 89 eb             	mov    %rbp,%rbx
  401cf6:	48 8b 3d 13 38 20 00 	mov    0x203813(%rip),%rdi        # 605510 <infile>
  401cfd:	e8 ce f0 ff ff       	callq  400dd0 <_IO_getc@plt>
  401d02:	83 f8 ff             	cmp    $0xffffffff,%eax
  401d05:	74 05                	je     401d0c <Gets+0x3d>
  401d07:	83 f8 0a             	cmp    $0xa,%eax
  401d0a:	75 d9                	jne    401ce5 <Gets+0x16>
  401d0c:	c6 03 00             	movb   $0x0,(%rbx)
  401d0f:	b8 00 00 00 00       	mov    $0x0,%eax
  401d14:	e8 6e ff ff ff       	callq  401c87 <save_term>
  401d19:	4c 89 e0             	mov    %r12,%rax
  401d1c:	5b                   	pop    %rbx
  401d1d:	5d                   	pop    %rbp
  401d1e:	41 5c                	pop    %r12
  401d20:	c3                   	retq   

0000000000401d21 <notify_server>:
  401d21:	53                   	push   %rbx
  401d22:	48 81 ec 10 40 00 00 	sub    $0x4010,%rsp
  401d29:	64 48 8b 04 25 28 00 	mov    %fs:0x28,%rax
  401d30:	00 00 
  401d32:	48 89 84 24 08 40 00 	mov    %rax,0x4008(%rsp)
  401d39:	00 
  401d3a:	31 c0                	xor    %eax,%eax
  401d3c:	83 3d e5 37 20 00 00 	cmpl   $0x0,0x2037e5(%rip)        # 605528 <is_checker>
  401d43:	0f 85 aa 01 00 00    	jne    401ef3 <notify_server+0x1d2>
  401d49:	89 fb                	mov    %edi,%ebx
  401d4b:	8b 05 f3 43 20 00    	mov    0x2043f3(%rip),%eax        # 606144 <gets_cnt>
  401d51:	83 c0 64             	add    $0x64,%eax
  401d54:	3d 00 20 00 00       	cmp    $0x2000,%eax
  401d59:	7e 1e                	jle    401d79 <notify_server+0x58>
  401d5b:	be 48 36 40 00       	mov    $0x403648,%esi
  401d60:	bf 01 00 00 00       	mov    $0x1,%edi
  401d65:	b8 00 00 00 00       	mov    $0x0,%eax
  401d6a:	e8 91 f0 ff ff       	callq  400e00 <__printf_chk@plt>
  401d6f:	bf 01 00 00 00       	mov    $0x1,%edi
  401d74:	e8 d7 f0 ff ff       	callq  400e50 <exit@plt>
  401d79:	0f be 05 c8 43 20 00 	movsbl 0x2043c8(%rip),%eax        # 606148 <target_prefix>
  401d80:	83 3d 21 37 20 00 00 	cmpl   $0x0,0x203721(%rip)        # 6054a8 <notify>
  401d87:	74 08                	je     401d91 <notify_server+0x70>
  401d89:	8b 15 91 37 20 00    	mov    0x203791(%rip),%edx        # 605520 <authkey>
  401d8f:	eb 05                	jmp    401d96 <notify_server+0x75>
  401d91:	ba ff ff ff ff       	mov    $0xffffffff,%edx
  401d96:	85 db                	test   %ebx,%ebx
  401d98:	74 08                	je     401da2 <notify_server+0x81>
  401d9a:	41 b9 29 35 40 00    	mov    $0x403529,%r9d
  401da0:	eb 06                	jmp    401da8 <notify_server+0x87>
  401da2:	41 b9 2e 35 40 00    	mov    $0x40352e,%r9d
  401da8:	68 40 55 60 00       	pushq  $0x605540
  401dad:	56                   	push   %rsi
  401dae:	50                   	push   %rax
  401daf:	52                   	push   %rdx
  401db0:	44 8b 05 b1 33 20 00 	mov    0x2033b1(%rip),%r8d        # 605168 <target_id>
  401db7:	b9 33 35 40 00       	mov    $0x403533,%ecx
  401dbc:	ba 00 20 00 00       	mov    $0x2000,%edx
  401dc1:	be 01 00 00 00       	mov    $0x1,%esi
  401dc6:	48 8d 7c 24 20       	lea    0x20(%rsp),%rdi
  401dcb:	b8 00 00 00 00       	mov    $0x0,%eax
  401dd0:	e8 ab f0 ff ff       	callq  400e80 <__sprintf_chk@plt>
  401dd5:	48 83 c4 20          	add    $0x20,%rsp
  401dd9:	83 3d c8 36 20 00 00 	cmpl   $0x0,0x2036c8(%rip)        # 6054a8 <notify>
  401de0:	0f 84 81 00 00 00    	je     401e67 <notify_server+0x146>
  401de6:	85 db                	test   %ebx,%ebx
  401de8:	74 6e                	je     401e58 <notify_server+0x137>
  401dea:	4c 8d 8c 24 00 20 00 	lea    0x2000(%rsp),%r9
  401df1:	00 
  401df2:	41 b8 00 00 00 00    	mov    $0x0,%r8d
  401df8:	48 89 e1             	mov    %rsp,%rcx
  401dfb:	48 8b 15 6e 33 20 00 	mov    0x20336e(%rip),%rdx        # 605170 <lab>
  401e02:	48 8b 35 6f 33 20 00 	mov    0x20336f(%rip),%rsi        # 605178 <course>
  401e09:	48 8b 3d 50 33 20 00 	mov    0x203350(%rip),%rdi        # 605160 <user_id>
  401e10:	e8 ef 10 00 00       	callq  402f04 <driver_post>
  401e15:	85 c0                	test   %eax,%eax
  401e17:	79 26                	jns    401e3f <notify_server+0x11e>
  401e19:	48 8d 94 24 00 20 00 	lea    0x2000(%rsp),%rdx
  401e20:	00 
  401e21:	be 4f 35 40 00       	mov    $0x40354f,%esi
  401e26:	bf 01 00 00 00       	mov    $0x1,%edi
  401e2b:	b8 00 00 00 00       	mov    $0x0,%eax
  401e30:	e8 cb ef ff ff       	callq  400e00 <__printf_chk@plt>
  401e35:	bf 01 00 00 00       	mov    $0x1,%edi
  401e3a:	e8 11 f0 ff ff       	callq  400e50 <exit@plt>
  401e3f:	bf 78 36 40 00       	mov    $0x403678,%edi
  401e44:	e8 87 ee ff ff       	callq  400cd0 <puts@plt>
  401e49:	bf 5b 35 40 00       	mov    $0x40355b,%edi
  401e4e:	e8 7d ee ff ff       	callq  400cd0 <puts@plt>
  401e53:	e9 9b 00 00 00       	jmpq   401ef3 <notify_server+0x1d2>
  401e58:	bf 65 35 40 00       	mov    $0x403565,%edi
  401e5d:	e8 6e ee ff ff       	callq  400cd0 <puts@plt>
  401e62:	e9 8c 00 00 00       	jmpq   401ef3 <notify_server+0x1d2>
  401e67:	85 db                	test   %ebx,%ebx
  401e69:	74 07                	je     401e72 <notify_server+0x151>
  401e6b:	ba 29 35 40 00       	mov    $0x403529,%edx
  401e70:	eb 05                	jmp    401e77 <notify_server+0x156>
  401e72:	ba 2e 35 40 00       	mov    $0x40352e,%edx
  401e77:	be b0 36 40 00       	mov    $0x4036b0,%esi
  401e7c:	bf 01 00 00 00       	mov    $0x1,%edi
  401e81:	b8 00 00 00 00       	mov    $0x0,%eax
  401e86:	e8 75 ef ff ff       	callq  400e00 <__printf_chk@plt>
  401e8b:	48 8b 15 ce 32 20 00 	mov    0x2032ce(%rip),%rdx        # 605160 <user_id>
  401e92:	be 6c 35 40 00       	mov    $0x40356c,%esi
  401e97:	bf 01 00 00 00       	mov    $0x1,%edi
  401e9c:	b8 00 00 00 00       	mov    $0x0,%eax
  401ea1:	e8 5a ef ff ff       	callq  400e00 <__printf_chk@plt>
  401ea6:	48 8b 15 cb 32 20 00 	mov    0x2032cb(%rip),%rdx        # 605178 <course>
  401ead:	be 79 35 40 00       	mov    $0x403579,%esi
  401eb2:	bf 01 00 00 00       	mov    $0x1,%edi
  401eb7:	b8 00 00 00 00       	mov    $0x0,%eax
  401ebc:	e8 3f ef ff ff       	callq  400e00 <__printf_chk@plt>
  401ec1:	48 8b 15 a8 32 20 00 	mov    0x2032a8(%rip),%rdx        # 605170 <lab>
  401ec8:	be 85 35 40 00       	mov    $0x403585,%esi
  401ecd:	bf 01 00 00 00       	mov    $0x1,%edi
  401ed2:	b8 00 00 00 00       	mov    $0x0,%eax
  401ed7:	e8 24 ef ff ff       	callq  400e00 <__printf_chk@plt>
  401edc:	48 89 e2             	mov    %rsp,%rdx
  401edf:	be 8e 35 40 00       	mov    $0x40358e,%esi
  401ee4:	bf 01 00 00 00       	mov    $0x1,%edi
  401ee9:	b8 00 00 00 00       	mov    $0x0,%eax
  401eee:	e8 0d ef ff ff       	callq  400e00 <__printf_chk@plt>
  401ef3:	48 8b 84 24 08 40 00 	mov    0x4008(%rsp),%rax
  401efa:	00 
  401efb:	64 48 33 04 25 28 00 	xor    %fs:0x28,%rax
  401f02:	00 00 
  401f04:	74 05                	je     401f0b <notify_server+0x1ea>
  401f06:	e8 e5 ed ff ff       	callq  400cf0 <__stack_chk_fail@plt>
  401f0b:	48 81 c4 10 40 00 00 	add    $0x4010,%rsp
  401f12:	5b                   	pop    %rbx
  401f13:	c3                   	retq   

0000000000401f14 <validate>:
  401f14:	53                   	push   %rbx
  401f15:	89 fb                	mov    %edi,%ebx
  401f17:	83 3d 0a 36 20 00 00 	cmpl   $0x0,0x20360a(%rip)        # 605528 <is_checker>
  401f1e:	74 6b                	je     401f8b <validate+0x77>
  401f20:	39 3d f6 35 20 00    	cmp    %edi,0x2035f6(%rip)        # 60551c <vlevel>
  401f26:	74 14                	je     401f3c <validate+0x28>
  401f28:	bf 9a 35 40 00       	mov    $0x40359a,%edi
  401f2d:	e8 9e ed ff ff       	callq  400cd0 <puts@plt>
  401f32:	b8 00 00 00 00       	mov    $0x0,%eax
  401f37:	e8 5e fd ff ff       	callq  401c9a <check_fail>
  401f3c:	8b 15 d6 35 20 00    	mov    0x2035d6(%rip),%edx        # 605518 <check_level>
  401f42:	39 d7                	cmp    %edx,%edi
  401f44:	74 20                	je     401f66 <validate+0x52>
  401f46:	89 f9                	mov    %edi,%ecx
  401f48:	be d8 36 40 00       	mov    $0x4036d8,%esi
  401f4d:	bf 01 00 00 00       	mov    $0x1,%edi
  401f52:	b8 00 00 00 00       	mov    $0x0,%eax
  401f57:	e8 a4 ee ff ff       	callq  400e00 <__printf_chk@plt>
  401f5c:	b8 00 00 00 00       	mov    $0x0,%eax
  401f61:	e8 34 fd ff ff       	callq  401c9a <check_fail>
  401f66:	0f be 15 db 41 20 00 	movsbl 0x2041db(%rip),%edx        # 606148 <target_prefix>
  401f6d:	41 b8 40 55 60 00    	mov    $0x605540,%r8d
  401f73:	89 f9                	mov    %edi,%ecx
  401f75:	be b8 35 40 00       	mov    $0x4035b8,%esi
  401f7a:	bf 01 00 00 00       	mov    $0x1,%edi
  401f7f:	b8 00 00 00 00       	mov    $0x0,%eax
  401f84:	e8 77 ee ff ff       	callq  400e00 <__printf_chk@plt>
  401f89:	eb 49                	jmp    401fd4 <validate+0xc0>
  401f8b:	3b 3d 8b 35 20 00    	cmp    0x20358b(%rip),%edi        # 60551c <vlevel>
  401f91:	74 18                	je     401fab <validate+0x97>
  401f93:	bf 9a 35 40 00       	mov    $0x40359a,%edi
  401f98:	e8 33 ed ff ff       	callq  400cd0 <puts@plt>
  401f9d:	89 de                	mov    %ebx,%esi
  401f9f:	bf 00 00 00 00       	mov    $0x0,%edi
  401fa4:	e8 78 fd ff ff       	callq  401d21 <notify_server>
  401fa9:	eb 29                	jmp    401fd4 <validate+0xc0>
  401fab:	0f be 0d 96 41 20 00 	movsbl 0x204196(%rip),%ecx        # 606148 <target_prefix>
  401fb2:	89 fa                	mov    %edi,%edx
  401fb4:	be 00 37 40 00       	mov    $0x403700,%esi
  401fb9:	bf 01 00 00 00       	mov    $0x1,%edi
  401fbe:	b8 00 00 00 00       	mov    $0x0,%eax
  401fc3:	e8 38 ee ff ff       	callq  400e00 <__printf_chk@plt>
  401fc8:	89 de                	mov    %ebx,%esi
  401fca:	bf 01 00 00 00       	mov    $0x1,%edi
  401fcf:	e8 4d fd ff ff       	callq  401d21 <notify_server>
  401fd4:	5b                   	pop    %rbx
  401fd5:	c3                   	retq   

0000000000401fd6 <fail>:
  401fd6:	48 83 ec 08          	sub    $0x8,%rsp
  401fda:	83 3d 47 35 20 00 00 	cmpl   $0x0,0x203547(%rip)        # 605528 <is_checker>
  401fe1:	74 0a                	je     401fed <fail+0x17>
  401fe3:	b8 00 00 00 00       	mov    $0x0,%eax
  401fe8:	e8 ad fc ff ff       	callq  401c9a <check_fail>
  401fed:	89 fe                	mov    %edi,%esi
  401fef:	bf 00 00 00 00       	mov    $0x0,%edi
  401ff4:	e8 28 fd ff ff       	callq  401d21 <notify_server>
  401ff9:	48 83 c4 08          	add    $0x8,%rsp
  401ffd:	c3                   	retq   

0000000000401ffe <bushandler>:
  401ffe:	48 83 ec 08          	sub    $0x8,%rsp
  402002:	83 3d 1f 35 20 00 00 	cmpl   $0x0,0x20351f(%rip)        # 605528 <is_checker>
  402009:	74 14                	je     40201f <bushandler+0x21>
  40200b:	bf cd 35 40 00       	mov    $0x4035cd,%edi
  402010:	e8 bb ec ff ff       	callq  400cd0 <puts@plt>
  402015:	b8 00 00 00 00       	mov    $0x0,%eax
  40201a:	e8 7b fc ff ff       	callq  401c9a <check_fail>
  40201f:	bf 38 37 40 00       	mov    $0x403738,%edi
  402024:	e8 a7 ec ff ff       	callq  400cd0 <puts@plt>
  402029:	bf d7 35 40 00       	mov    $0x4035d7,%edi
  40202e:	e8 9d ec ff ff       	callq  400cd0 <puts@plt>
  402033:	be 00 00 00 00       	mov    $0x0,%esi
  402038:	bf 00 00 00 00       	mov    $0x0,%edi
  40203d:	e8 df fc ff ff       	callq  401d21 <notify_server>
  402042:	bf 01 00 00 00       	mov    $0x1,%edi
  402047:	e8 04 ee ff ff       	callq  400e50 <exit@plt>

000000000040204c <seghandler>:
  40204c:	48 83 ec 08          	sub    $0x8,%rsp
  402050:	83 3d d1 34 20 00 00 	cmpl   $0x0,0x2034d1(%rip)        # 605528 <is_checker>
  402057:	74 14                	je     40206d <seghandler+0x21>
  402059:	bf ed 35 40 00       	mov    $0x4035ed,%edi
  40205e:	e8 6d ec ff ff       	callq  400cd0 <puts@plt>
  402063:	b8 00 00 00 00       	mov    $0x0,%eax
  402068:	e8 2d fc ff ff       	callq  401c9a <check_fail>
  40206d:	bf 58 37 40 00       	mov    $0x403758,%edi
  402072:	e8 59 ec ff ff       	callq  400cd0 <puts@plt>
  402077:	bf d7 35 40 00       	mov    $0x4035d7,%edi
  40207c:	e8 4f ec ff ff       	callq  400cd0 <puts@plt>
  402081:	be 00 00 00 00       	mov    $0x0,%esi
  402086:	bf 00 00 00 00       	mov    $0x0,%edi
  40208b:	e8 91 fc ff ff       	callq  401d21 <notify_server>
  402090:	bf 01 00 00 00       	mov    $0x1,%edi
  402095:	e8 b6 ed ff ff       	callq  400e50 <exit@plt>

000000000040209a <illegalhandler>:
  40209a:	48 83 ec 08          	sub    $0x8,%rsp
  40209e:	83 3d 83 34 20 00 00 	cmpl   $0x0,0x203483(%rip)        # 605528 <is_checker>
  4020a5:	74 14                	je     4020bb <illegalhandler+0x21>
  4020a7:	bf 00 36 40 00       	mov    $0x403600,%edi
  4020ac:	e8 1f ec ff ff       	callq  400cd0 <puts@plt>
  4020b1:	b8 00 00 00 00       	mov    $0x0,%eax
  4020b6:	e8 df fb ff ff       	callq  401c9a <check_fail>
  4020bb:	bf 80 37 40 00       	mov    $0x403780,%edi
  4020c0:	e8 0b ec ff ff       	callq  400cd0 <puts@plt>
  4020c5:	bf d7 35 40 00       	mov    $0x4035d7,%edi
  4020ca:	e8 01 ec ff ff       	callq  400cd0 <puts@plt>
  4020cf:	be 00 00 00 00       	mov    $0x0,%esi
  4020d4:	bf 00 00 00 00       	mov    $0x0,%edi
  4020d9:	e8 43 fc ff ff       	callq  401d21 <notify_server>
  4020de:	bf 01 00 00 00       	mov    $0x1,%edi
  4020e3:	e8 68 ed ff ff       	callq  400e50 <exit@plt>

00000000004020e8 <sigalrmhandler>:
  4020e8:	48 83 ec 08          	sub    $0x8,%rsp
  4020ec:	83 3d 35 34 20 00 00 	cmpl   $0x0,0x203435(%rip)        # 605528 <is_checker>
  4020f3:	74 14                	je     402109 <sigalrmhandler+0x21>
  4020f5:	bf 14 36 40 00       	mov    $0x403614,%edi
  4020fa:	e8 d1 eb ff ff       	callq  400cd0 <puts@plt>
  4020ff:	b8 00 00 00 00       	mov    $0x0,%eax
  402104:	e8 91 fb ff ff       	callq  401c9a <check_fail>
  402109:	ba 05 00 00 00       	mov    $0x5,%edx
  40210e:	be b0 37 40 00       	mov    $0x4037b0,%esi
  402113:	bf 01 00 00 00       	mov    $0x1,%edi
  402118:	b8 00 00 00 00       	mov    $0x0,%eax
  40211d:	e8 de ec ff ff       	callq  400e00 <__printf_chk@plt>
  402122:	be 00 00 00 00       	mov    $0x0,%esi
  402127:	bf 00 00 00 00       	mov    $0x0,%edi
  40212c:	e8 f0 fb ff ff       	callq  401d21 <notify_server>
  402131:	bf 01 00 00 00       	mov    $0x1,%edi
  402136:	e8 15 ed ff ff       	callq  400e50 <exit@plt>

000000000040213b <launch>:
  40213b:	55                   	push   %rbp
  40213c:	48 89 e5             	mov    %rsp,%rbp
  40213f:	48 83 ec 10          	sub    $0x10,%rsp
  402143:	48 89 fa             	mov    %rdi,%rdx
  402146:	64 48 8b 04 25 28 00 	mov    %fs:0x28,%rax
  40214d:	00 00 
  40214f:	48 89 45 f8          	mov    %rax,-0x8(%rbp)
  402153:	31 c0                	xor    %eax,%eax
  402155:	48 8d 47 1e          	lea    0x1e(%rdi),%rax
  402159:	48 83 e0 f0          	and    $0xfffffffffffffff0,%rax
  40215d:	48 29 c4             	sub    %rax,%rsp
  402160:	48 8d 7c 24 0f       	lea    0xf(%rsp),%rdi
  402165:	48 83 e7 f0          	and    $0xfffffffffffffff0,%rdi
  402169:	be f4 00 00 00       	mov    $0xf4,%esi
  40216e:	e8 9d eb ff ff       	callq  400d10 <memset@plt>
  402173:	48 8b 05 46 33 20 00 	mov    0x203346(%rip),%rax        # 6054c0 <stdin@@GLIBC_2.2.5>
  40217a:	48 39 05 8f 33 20 00 	cmp    %rax,0x20338f(%rip)        # 605510 <infile>
  402181:	75 14                	jne    402197 <launch+0x5c>
  402183:	be 1c 36 40 00       	mov    $0x40361c,%esi
  402188:	bf 01 00 00 00       	mov    $0x1,%edi
  40218d:	b8 00 00 00 00       	mov    $0x0,%eax
  402192:	e8 69 ec ff ff       	callq  400e00 <__printf_chk@plt>
  402197:	c7 05 7b 33 20 00 00 	movl   $0x0,0x20337b(%rip)        # 60551c <vlevel>
  40219e:	00 00 00 
  4021a1:	b8 00 00 00 00       	mov    $0x0,%eax
  4021a6:	e8 37 f9 ff ff       	callq  401ae2 <test>
  4021ab:	83 3d 76 33 20 00 00 	cmpl   $0x0,0x203376(%rip)        # 605528 <is_checker>
  4021b2:	74 14                	je     4021c8 <launch+0x8d>
  4021b4:	bf 29 36 40 00       	mov    $0x403629,%edi
  4021b9:	e8 12 eb ff ff       	callq  400cd0 <puts@plt>
  4021be:	b8 00 00 00 00       	mov    $0x0,%eax
  4021c3:	e8 d2 fa ff ff       	callq  401c9a <check_fail>
  4021c8:	bf 34 36 40 00       	mov    $0x403634,%edi
  4021cd:	e8 fe ea ff ff       	callq  400cd0 <puts@plt>
  4021d2:	48 8b 45 f8          	mov    -0x8(%rbp),%rax
  4021d6:	64 48 33 04 25 28 00 	xor    %fs:0x28,%rax
  4021dd:	00 00 
  4021df:	74 05                	je     4021e6 <launch+0xab>
  4021e1:	e8 0a eb ff ff       	callq  400cf0 <__stack_chk_fail@plt>
  4021e6:	c9                   	leaveq 
  4021e7:	c3                   	retq   

00000000004021e8 <stable_launch>:
  4021e8:	53                   	push   %rbx
  4021e9:	48 89 3d 18 33 20 00 	mov    %rdi,0x203318(%rip)        # 605508 <global_offset>
  4021f0:	41 b9 00 00 00 00    	mov    $0x0,%r9d
  4021f6:	41 b8 00 00 00 00    	mov    $0x0,%r8d
  4021fc:	b9 32 01 00 00       	mov    $0x132,%ecx
  402201:	ba 07 00 00 00       	mov    $0x7,%edx
  402206:	be 00 00 10 00       	mov    $0x100000,%esi
  40220b:	bf 00 60 58 55       	mov    $0x55586000,%edi
  402210:	e8 eb ea ff ff       	callq  400d00 <mmap@plt>
  402215:	48 89 c3             	mov    %rax,%rbx
  402218:	48 3d 00 60 58 55    	cmp    $0x55586000,%rax
  40221e:	74 37                	je     402257 <stable_launch+0x6f>
  402220:	be 00 00 10 00       	mov    $0x100000,%esi
  402225:	48 89 c7             	mov    %rax,%rdi
  402228:	e8 c3 eb ff ff       	callq  400df0 <munmap@plt>
  40222d:	b9 00 60 58 55       	mov    $0x55586000,%ecx
  402232:	ba e8 37 40 00       	mov    $0x4037e8,%edx
  402237:	be 01 00 00 00       	mov    $0x1,%esi
  40223c:	48 8b 3d 9d 32 20 00 	mov    0x20329d(%rip),%rdi        # 6054e0 <stderr@@GLIBC_2.2.5>
  402243:	b8 00 00 00 00       	mov    $0x0,%eax
  402248:	e8 23 ec ff ff       	callq  400e70 <__fprintf_chk@plt>
  40224d:	bf 01 00 00 00       	mov    $0x1,%edi
  402252:	e8 f9 eb ff ff       	callq  400e50 <exit@plt>
  402257:	48 8d 90 f8 ff 0f 00 	lea    0xffff8(%rax),%rdx
  40225e:	48 89 15 eb 3e 20 00 	mov    %rdx,0x203eeb(%rip)        # 606150 <stack_top>
  402265:	48 89 e0             	mov    %rsp,%rax
  402268:	48 89 d4             	mov    %rdx,%rsp
  40226b:	48 89 c2             	mov    %rax,%rdx
  40226e:	48 89 15 8b 32 20 00 	mov    %rdx,0x20328b(%rip)        # 605500 <global_save_stack>
  402275:	48 8b 3d 8c 32 20 00 	mov    0x20328c(%rip),%rdi        # 605508 <global_offset>
  40227c:	e8 ba fe ff ff       	callq  40213b <launch>
  402281:	48 8b 05 78 32 20 00 	mov    0x203278(%rip),%rax        # 605500 <global_save_stack>
  402288:	48 89 c4             	mov    %rax,%rsp
  40228b:	be 00 00 10 00       	mov    $0x100000,%esi
  402290:	48 89 df             	mov    %rbx,%rdi
  402293:	e8 58 eb ff ff       	callq  400df0 <munmap@plt>
  402298:	5b                   	pop    %rbx
  402299:	c3                   	retq   

000000000040229a <rio_readinitb>:
  40229a:	89 37                	mov    %esi,(%rdi)
  40229c:	c7 47 04 00 00 00 00 	movl   $0x0,0x4(%rdi)
  4022a3:	48 8d 47 10          	lea    0x10(%rdi),%rax
  4022a7:	48 89 47 08          	mov    %rax,0x8(%rdi)
  4022ab:	c3                   	retq   

00000000004022ac <sigalrm_handler>:
  4022ac:	48 83 ec 08          	sub    $0x8,%rsp
  4022b0:	b9 00 00 00 00       	mov    $0x0,%ecx
  4022b5:	ba 20 38 40 00       	mov    $0x403820,%edx
  4022ba:	be 01 00 00 00       	mov    $0x1,%esi
  4022bf:	48 8b 3d 1a 32 20 00 	mov    0x20321a(%rip),%rdi        # 6054e0 <stderr@@GLIBC_2.2.5>
  4022c6:	b8 00 00 00 00       	mov    $0x0,%eax
  4022cb:	e8 a0 eb ff ff       	callq  400e70 <__fprintf_chk@plt>
  4022d0:	bf 01 00 00 00       	mov    $0x1,%edi
  4022d5:	e8 76 eb ff ff       	callq  400e50 <exit@plt>

00000000004022da <rio_writen>:
  4022da:	41 55                	push   %r13
  4022dc:	41 54                	push   %r12
  4022de:	55                   	push   %rbp
  4022df:	53                   	push   %rbx
  4022e0:	48 83 ec 08          	sub    $0x8,%rsp
  4022e4:	41 89 fc             	mov    %edi,%r12d
  4022e7:	48 89 f5             	mov    %rsi,%rbp
  4022ea:	49 89 d5             	mov    %rdx,%r13
  4022ed:	48 89 d3             	mov    %rdx,%rbx
  4022f0:	eb 28                	jmp    40231a <rio_writen+0x40>
  4022f2:	48 89 da             	mov    %rbx,%rdx
  4022f5:	48 89 ee             	mov    %rbp,%rsi
  4022f8:	44 89 e7             	mov    %r12d,%edi
  4022fb:	e8 e0 e9 ff ff       	callq  400ce0 <write@plt>
  402300:	48 85 c0             	test   %rax,%rax
  402303:	7f 0f                	jg     402314 <rio_writen+0x3a>
  402305:	e8 86 e9 ff ff       	callq  400c90 <__errno_location@plt>
  40230a:	83 38 04             	cmpl   $0x4,(%rax)
  40230d:	75 15                	jne    402324 <rio_writen+0x4a>
  40230f:	b8 00 00 00 00       	mov    $0x0,%eax
  402314:	48 29 c3             	sub    %rax,%rbx
  402317:	48 01 c5             	add    %rax,%rbp
  40231a:	48 85 db             	test   %rbx,%rbx
  40231d:	75 d3                	jne    4022f2 <rio_writen+0x18>
  40231f:	4c 89 e8             	mov    %r13,%rax
  402322:	eb 07                	jmp    40232b <rio_writen+0x51>
  402324:	48 c7 c0 ff ff ff ff 	mov    $0xffffffffffffffff,%rax
  40232b:	48 83 c4 08          	add    $0x8,%rsp
  40232f:	5b                   	pop    %rbx
  402330:	5d                   	pop    %rbp
  402331:	41 5c                	pop    %r12
  402333:	41 5d                	pop    %r13
  402335:	c3                   	retq   

0000000000402336 <rio_read>:
  402336:	41 55                	push   %r13
  402338:	41 54                	push   %r12
  40233a:	55                   	push   %rbp
  40233b:	53                   	push   %rbx
  40233c:	48 83 ec 08          	sub    $0x8,%rsp
  402340:	48 89 fb             	mov    %rdi,%rbx
  402343:	49 89 f5             	mov    %rsi,%r13
  402346:	49 89 d4             	mov    %rdx,%r12
  402349:	eb 2e                	jmp    402379 <rio_read+0x43>
  40234b:	48 8d 6b 10          	lea    0x10(%rbx),%rbp
  40234f:	8b 3b                	mov    (%rbx),%edi
  402351:	ba 00 20 00 00       	mov    $0x2000,%edx
  402356:	48 89 ee             	mov    %rbp,%rsi
  402359:	e8 e2 e9 ff ff       	callq  400d40 <read@plt>
  40235e:	89 43 04             	mov    %eax,0x4(%rbx)
  402361:	85 c0                	test   %eax,%eax
  402363:	79 0c                	jns    402371 <rio_read+0x3b>
  402365:	e8 26 e9 ff ff       	callq  400c90 <__errno_location@plt>
  40236a:	83 38 04             	cmpl   $0x4,(%rax)
  40236d:	74 0a                	je     402379 <rio_read+0x43>
  40236f:	eb 37                	jmp    4023a8 <rio_read+0x72>
  402371:	85 c0                	test   %eax,%eax
  402373:	74 3c                	je     4023b1 <rio_read+0x7b>
  402375:	48 89 6b 08          	mov    %rbp,0x8(%rbx)
  402379:	8b 6b 04             	mov    0x4(%rbx),%ebp
  40237c:	85 ed                	test   %ebp,%ebp
  40237e:	7e cb                	jle    40234b <rio_read+0x15>
  402380:	89 e8                	mov    %ebp,%eax
  402382:	49 39 c4             	cmp    %rax,%r12
  402385:	77 03                	ja     40238a <rio_read+0x54>
  402387:	44 89 e5             	mov    %r12d,%ebp
  40238a:	4c 63 e5             	movslq %ebp,%r12
  40238d:	48 8b 73 08          	mov    0x8(%rbx),%rsi
  402391:	4c 89 e2             	mov    %r12,%rdx
  402394:	4c 89 ef             	mov    %r13,%rdi
  402397:	e8 04 ea ff ff       	callq  400da0 <memcpy@plt>
  40239c:	4c 01 63 08          	add    %r12,0x8(%rbx)
  4023a0:	29 6b 04             	sub    %ebp,0x4(%rbx)
  4023a3:	4c 89 e0             	mov    %r12,%rax
  4023a6:	eb 0e                	jmp    4023b6 <rio_read+0x80>
  4023a8:	48 c7 c0 ff ff ff ff 	mov    $0xffffffffffffffff,%rax
  4023af:	eb 05                	jmp    4023b6 <rio_read+0x80>
  4023b1:	b8 00 00 00 00       	mov    $0x0,%eax
  4023b6:	48 83 c4 08          	add    $0x8,%rsp
  4023ba:	5b                   	pop    %rbx
  4023bb:	5d                   	pop    %rbp
  4023bc:	41 5c                	pop    %r12
  4023be:	41 5d                	pop    %r13
  4023c0:	c3                   	retq   

00000000004023c1 <rio_readlineb>:
  4023c1:	41 55                	push   %r13
  4023c3:	41 54                	push   %r12
  4023c5:	55                   	push   %rbp
  4023c6:	53                   	push   %rbx
  4023c7:	48 83 ec 18          	sub    $0x18,%rsp
  4023cb:	49 89 fd             	mov    %rdi,%r13
  4023ce:	48 89 f5             	mov    %rsi,%rbp
  4023d1:	49 89 d4             	mov    %rdx,%r12
  4023d4:	64 48 8b 04 25 28 00 	mov    %fs:0x28,%rax
  4023db:	00 00 
  4023dd:	48 89 44 24 08       	mov    %rax,0x8(%rsp)
  4023e2:	31 c0                	xor    %eax,%eax
  4023e4:	bb 01 00 00 00       	mov    $0x1,%ebx
  4023e9:	eb 3f                	jmp    40242a <rio_readlineb+0x69>
  4023eb:	ba 01 00 00 00       	mov    $0x1,%edx
  4023f0:	48 8d 74 24 07       	lea    0x7(%rsp),%rsi
  4023f5:	4c 89 ef             	mov    %r13,%rdi
  4023f8:	e8 39 ff ff ff       	callq  402336 <rio_read>
  4023fd:	83 f8 01             	cmp    $0x1,%eax
  402400:	75 15                	jne    402417 <rio_readlineb+0x56>
  402402:	48 8d 45 01          	lea    0x1(%rbp),%rax
  402406:	0f b6 54 24 07       	movzbl 0x7(%rsp),%edx
  40240b:	88 55 00             	mov    %dl,0x0(%rbp)
  40240e:	80 7c 24 07 0a       	cmpb   $0xa,0x7(%rsp)
  402413:	75 0e                	jne    402423 <rio_readlineb+0x62>
  402415:	eb 1a                	jmp    402431 <rio_readlineb+0x70>
  402417:	85 c0                	test   %eax,%eax
  402419:	75 22                	jne    40243d <rio_readlineb+0x7c>
  40241b:	48 83 fb 01          	cmp    $0x1,%rbx
  40241f:	75 13                	jne    402434 <rio_readlineb+0x73>
  402421:	eb 23                	jmp    402446 <rio_readlineb+0x85>
  402423:	48 83 c3 01          	add    $0x1,%rbx
  402427:	48 89 c5             	mov    %rax,%rbp
  40242a:	4c 39 e3             	cmp    %r12,%rbx
  40242d:	72 bc                	jb     4023eb <rio_readlineb+0x2a>
  40242f:	eb 03                	jmp    402434 <rio_readlineb+0x73>
  402431:	48 89 c5             	mov    %rax,%rbp
  402434:	c6 45 00 00          	movb   $0x0,0x0(%rbp)
  402438:	48 89 d8             	mov    %rbx,%rax
  40243b:	eb 0e                	jmp    40244b <rio_readlineb+0x8a>
  40243d:	48 c7 c0 ff ff ff ff 	mov    $0xffffffffffffffff,%rax
  402444:	eb 05                	jmp    40244b <rio_readlineb+0x8a>
  402446:	b8 00 00 00 00       	mov    $0x0,%eax
  40244b:	48 8b 4c 24 08       	mov    0x8(%rsp),%rcx
  402450:	64 48 33 0c 25 28 00 	xor    %fs:0x28,%rcx
  402457:	00 00 
  402459:	74 05                	je     402460 <rio_readlineb+0x9f>
  40245b:	e8 90 e8 ff ff       	callq  400cf0 <__stack_chk_fail@plt>
  402460:	48 83 c4 18          	add    $0x18,%rsp
  402464:	5b                   	pop    %rbx
  402465:	5d                   	pop    %rbp
  402466:	41 5c                	pop    %r12
  402468:	41 5d                	pop    %r13
  40246a:	c3                   	retq   

000000000040246b <urlencode>:
  40246b:	41 54                	push   %r12
  40246d:	55                   	push   %rbp
  40246e:	53                   	push   %rbx
  40246f:	48 83 ec 10          	sub    $0x10,%rsp
  402473:	48 89 fb             	mov    %rdi,%rbx
  402476:	48 89 f5             	mov    %rsi,%rbp
  402479:	64 48 8b 04 25 28 00 	mov    %fs:0x28,%rax
  402480:	00 00 
  402482:	48 89 44 24 08       	mov    %rax,0x8(%rsp)
  402487:	31 c0                	xor    %eax,%eax
  402489:	48 c7 c1 ff ff ff ff 	mov    $0xffffffffffffffff,%rcx
  402490:	f2 ae                	repnz scas %es:(%rdi),%al
  402492:	48 f7 d1             	not    %rcx
  402495:	8d 41 ff             	lea    -0x1(%rcx),%eax
  402498:	e9 aa 00 00 00       	jmpq   402547 <urlencode+0xdc>
  40249d:	44 0f b6 03          	movzbl (%rbx),%r8d
  4024a1:	41 80 f8 2a          	cmp    $0x2a,%r8b
  4024a5:	0f 94 c2             	sete   %dl
  4024a8:	41 80 f8 2d          	cmp    $0x2d,%r8b
  4024ac:	0f 94 c0             	sete   %al
  4024af:	08 c2                	or     %al,%dl
  4024b1:	75 24                	jne    4024d7 <urlencode+0x6c>
  4024b3:	41 80 f8 2e          	cmp    $0x2e,%r8b
  4024b7:	74 1e                	je     4024d7 <urlencode+0x6c>
  4024b9:	41 80 f8 5f          	cmp    $0x5f,%r8b
  4024bd:	74 18                	je     4024d7 <urlencode+0x6c>
  4024bf:	41 8d 40 d0          	lea    -0x30(%r8),%eax
  4024c3:	3c 09                	cmp    $0x9,%al
  4024c5:	76 10                	jbe    4024d7 <urlencode+0x6c>
  4024c7:	41 8d 40 bf          	lea    -0x41(%r8),%eax
  4024cb:	3c 19                	cmp    $0x19,%al
  4024cd:	76 08                	jbe    4024d7 <urlencode+0x6c>
  4024cf:	41 8d 40 9f          	lea    -0x61(%r8),%eax
  4024d3:	3c 19                	cmp    $0x19,%al
  4024d5:	77 0a                	ja     4024e1 <urlencode+0x76>
  4024d7:	44 88 45 00          	mov    %r8b,0x0(%rbp)
  4024db:	48 8d 6d 01          	lea    0x1(%rbp),%rbp
  4024df:	eb 5f                	jmp    402540 <urlencode+0xd5>
  4024e1:	41 80 f8 20          	cmp    $0x20,%r8b
  4024e5:	75 0a                	jne    4024f1 <urlencode+0x86>
  4024e7:	c6 45 00 2b          	movb   $0x2b,0x0(%rbp)
  4024eb:	48 8d 6d 01          	lea    0x1(%rbp),%rbp
  4024ef:	eb 4f                	jmp    402540 <urlencode+0xd5>
  4024f1:	41 8d 40 e0          	lea    -0x20(%r8),%eax
  4024f5:	3c 5f                	cmp    $0x5f,%al
  4024f7:	0f 96 c2             	setbe  %dl
  4024fa:	41 80 f8 09          	cmp    $0x9,%r8b
  4024fe:	0f 94 c0             	sete   %al
  402501:	08 c2                	or     %al,%dl
  402503:	74 50                	je     402555 <urlencode+0xea>
  402505:	45 0f b6 c0          	movzbl %r8b,%r8d
  402509:	b9 b8 38 40 00       	mov    $0x4038b8,%ecx
  40250e:	ba 08 00 00 00       	mov    $0x8,%edx
  402513:	be 01 00 00 00       	mov    $0x1,%esi
  402518:	48 89 e7             	mov    %rsp,%rdi
  40251b:	b8 00 00 00 00       	mov    $0x0,%eax
  402520:	e8 5b e9 ff ff       	callq  400e80 <__sprintf_chk@plt>
  402525:	0f b6 04 24          	movzbl (%rsp),%eax
  402529:	88 45 00             	mov    %al,0x0(%rbp)
  40252c:	0f b6 44 24 01       	movzbl 0x1(%rsp),%eax
  402531:	88 45 01             	mov    %al,0x1(%rbp)
  402534:	0f b6 44 24 02       	movzbl 0x2(%rsp),%eax
  402539:	88 45 02             	mov    %al,0x2(%rbp)
  40253c:	48 8d 6d 03          	lea    0x3(%rbp),%rbp
  402540:	48 83 c3 01          	add    $0x1,%rbx
  402544:	44 89 e0             	mov    %r12d,%eax
  402547:	44 8d 60 ff          	lea    -0x1(%rax),%r12d
  40254b:	85 c0                	test   %eax,%eax
  40254d:	0f 85 4a ff ff ff    	jne    40249d <urlencode+0x32>
  402553:	eb 05                	jmp    40255a <urlencode+0xef>
  402555:	b8 ff ff ff ff       	mov    $0xffffffff,%eax
  40255a:	48 8b 74 24 08       	mov    0x8(%rsp),%rsi
  40255f:	64 48 33 34 25 28 00 	xor    %fs:0x28,%rsi
  402566:	00 00 
  402568:	74 05                	je     40256f <urlencode+0x104>
  40256a:	e8 81 e7 ff ff       	callq  400cf0 <__stack_chk_fail@plt>
  40256f:	48 83 c4 10          	add    $0x10,%rsp
  402573:	5b                   	pop    %rbx
  402574:	5d                   	pop    %rbp
  402575:	41 5c                	pop    %r12
  402577:	c3                   	retq   

0000000000402578 <submitr>:
  402578:	41 57                	push   %r15
  40257a:	41 56                	push   %r14
  40257c:	41 55                	push   %r13
  40257e:	41 54                	push   %r12
  402580:	55                   	push   %rbp
  402581:	53                   	push   %rbx
  402582:	48 81 ec 58 a0 00 00 	sub    $0xa058,%rsp
  402589:	49 89 fc             	mov    %rdi,%r12
  40258c:	89 74 24 04          	mov    %esi,0x4(%rsp)
  402590:	49 89 d7             	mov    %rdx,%r15
  402593:	49 89 ce             	mov    %rcx,%r14
  402596:	4c 89 44 24 08       	mov    %r8,0x8(%rsp)
  40259b:	4d 89 cd             	mov    %r9,%r13
  40259e:	48 8b 9c 24 90 a0 00 	mov    0xa090(%rsp),%rbx
  4025a5:	00 
  4025a6:	64 48 8b 04 25 28 00 	mov    %fs:0x28,%rax
  4025ad:	00 00 
  4025af:	48 89 84 24 48 a0 00 	mov    %rax,0xa048(%rsp)
  4025b6:	00 
  4025b7:	31 c0                	xor    %eax,%eax
  4025b9:	c7 44 24 1c 00 00 00 	movl   $0x0,0x1c(%rsp)
  4025c0:	00 
  4025c1:	ba 00 00 00 00       	mov    $0x0,%edx
  4025c6:	be 01 00 00 00       	mov    $0x1,%esi
  4025cb:	bf 02 00 00 00       	mov    $0x2,%edi
  4025d0:	e8 bb e8 ff ff       	callq  400e90 <socket@plt>
  4025d5:	85 c0                	test   %eax,%eax
  4025d7:	79 4e                	jns    402627 <submitr+0xaf>
  4025d9:	48 b8 45 72 72 6f 72 	movabs $0x43203a726f727245,%rax
  4025e0:	3a 20 43 
  4025e3:	48 89 03             	mov    %rax,(%rbx)
  4025e6:	48 b8 6c 69 65 6e 74 	movabs $0x6e7520746e65696c,%rax
  4025ed:	20 75 6e 
  4025f0:	48 89 43 08          	mov    %rax,0x8(%rbx)
  4025f4:	48 b8 61 62 6c 65 20 	movabs $0x206f7420656c6261,%rax
  4025fb:	74 6f 20 
  4025fe:	48 89 43 10          	mov    %rax,0x10(%rbx)
  402602:	48 b8 63 72 65 61 74 	movabs $0x7320657461657263,%rax
  402609:	65 20 73 
  40260c:	48 89 43 18          	mov    %rax,0x18(%rbx)
  402610:	c7 43 20 6f 63 6b 65 	movl   $0x656b636f,0x20(%rbx)
  402617:	66 c7 43 24 74 00    	movw   $0x74,0x24(%rbx)
  40261d:	b8 ff ff ff ff       	mov    $0xffffffff,%eax
  402622:	e9 97 06 00 00       	jmpq   402cbe <submitr+0x746>
  402627:	89 c5                	mov    %eax,%ebp
  402629:	4c 89 e7             	mov    %r12,%rdi
  40262c:	e8 3f e7 ff ff       	callq  400d70 <gethostbyname@plt>
  402631:	48 85 c0             	test   %rax,%rax
  402634:	75 67                	jne    40269d <submitr+0x125>
  402636:	48 b8 45 72 72 6f 72 	movabs $0x44203a726f727245,%rax
  40263d:	3a 20 44 
  402640:	48 89 03             	mov    %rax,(%rbx)
  402643:	48 b8 4e 53 20 69 73 	movabs $0x6e7520736920534e,%rax
  40264a:	20 75 6e 
  40264d:	48 89 43 08          	mov    %rax,0x8(%rbx)
  402651:	48 b8 61 62 6c 65 20 	movabs $0x206f7420656c6261,%rax
  402658:	74 6f 20 
  40265b:	48 89 43 10          	mov    %rax,0x10(%rbx)
  40265f:	48 b8 72 65 73 6f 6c 	movabs $0x2065766c6f736572,%rax
  402666:	76 65 20 
  402669:	48 89 43 18          	mov    %rax,0x18(%rbx)
  40266d:	48 b8 73 65 72 76 65 	movabs $0x6120726576726573,%rax
  402674:	72 20 61 
  402677:	48 89 43 20          	mov    %rax,0x20(%rbx)
  40267b:	c7 43 28 64 64 72 65 	movl   $0x65726464,0x28(%rbx)
  402682:	66 c7 43 2c 73 73    	movw   $0x7373,0x2c(%rbx)
  402688:	c6 43 2e 00          	movb   $0x0,0x2e(%rbx)
  40268c:	89 ef                	mov    %ebp,%edi
  40268e:	e8 9d e6 ff ff       	callq  400d30 <close@plt>
  402693:	b8 ff ff ff ff       	mov    $0xffffffff,%eax
  402698:	e9 21 06 00 00       	jmpq   402cbe <submitr+0x746>
  40269d:	48 c7 44 24 20 00 00 	movq   $0x0,0x20(%rsp)
  4026a4:	00 00 
  4026a6:	48 c7 44 24 28 00 00 	movq   $0x0,0x28(%rsp)
  4026ad:	00 00 
  4026af:	66 c7 44 24 20 02 00 	movw   $0x2,0x20(%rsp)
  4026b6:	48 63 50 14          	movslq 0x14(%rax),%rdx
  4026ba:	48 8b 40 18          	mov    0x18(%rax),%rax
  4026be:	48 8b 30             	mov    (%rax),%rsi
  4026c1:	48 8d 7c 24 24       	lea    0x24(%rsp),%rdi
  4026c6:	b9 0c 00 00 00       	mov    $0xc,%ecx
  4026cb:	e8 b0 e6 ff ff       	callq  400d80 <__memmove_chk@plt>
  4026d0:	0f b7 44 24 04       	movzwl 0x4(%rsp),%eax
  4026d5:	66 c1 c8 08          	ror    $0x8,%ax
  4026d9:	66 89 44 24 22       	mov    %ax,0x22(%rsp)
  4026de:	ba 10 00 00 00       	mov    $0x10,%edx
  4026e3:	48 8d 74 24 20       	lea    0x20(%rsp),%rsi
  4026e8:	89 ef                	mov    %ebp,%edi
  4026ea:	e8 71 e7 ff ff       	callq  400e60 <connect@plt>
  4026ef:	85 c0                	test   %eax,%eax
  4026f1:	79 59                	jns    40274c <submitr+0x1d4>
  4026f3:	48 b8 45 72 72 6f 72 	movabs $0x55203a726f727245,%rax
  4026fa:	3a 20 55 
  4026fd:	48 89 03             	mov    %rax,(%rbx)
  402700:	48 b8 6e 61 62 6c 65 	movabs $0x6f7420656c62616e,%rax
  402707:	20 74 6f 
  40270a:	48 89 43 08          	mov    %rax,0x8(%rbx)
  40270e:	48 b8 20 63 6f 6e 6e 	movabs $0x7463656e6e6f6320,%rax
  402715:	65 63 74 
  402718:	48 89 43 10          	mov    %rax,0x10(%rbx)
  40271c:	48 b8 20 74 6f 20 74 	movabs $0x20656874206f7420,%rax
  402723:	68 65 20 
  402726:	48 89 43 18          	mov    %rax,0x18(%rbx)
  40272a:	c7 43 20 73 65 72 76 	movl   $0x76726573,0x20(%rbx)
  402731:	66 c7 43 24 65 72    	movw   $0x7265,0x24(%rbx)
  402737:	c6 43 26 00          	movb   $0x0,0x26(%rbx)
  40273b:	89 ef                	mov    %ebp,%edi
  40273d:	e8 ee e5 ff ff       	callq  400d30 <close@plt>
  402742:	b8 ff ff ff ff       	mov    $0xffffffff,%eax
  402747:	e9 72 05 00 00       	jmpq   402cbe <submitr+0x746>
  40274c:	48 c7 c6 ff ff ff ff 	mov    $0xffffffffffffffff,%rsi
  402753:	b8 00 00 00 00       	mov    $0x0,%eax
  402758:	48 89 f1             	mov    %rsi,%rcx
  40275b:	4c 89 ef             	mov    %r13,%rdi
  40275e:	f2 ae                	repnz scas %es:(%rdi),%al
  402760:	48 f7 d1             	not    %rcx
  402763:	48 89 ca             	mov    %rcx,%rdx
  402766:	48 89 f1             	mov    %rsi,%rcx
  402769:	4c 89 ff             	mov    %r15,%rdi
  40276c:	f2 ae                	repnz scas %es:(%rdi),%al
  40276e:	48 f7 d1             	not    %rcx
  402771:	49 89 c8             	mov    %rcx,%r8
  402774:	48 89 f1             	mov    %rsi,%rcx
  402777:	4c 89 f7             	mov    %r14,%rdi
  40277a:	f2 ae                	repnz scas %es:(%rdi),%al
  40277c:	48 f7 d1             	not    %rcx
  40277f:	4d 8d 44 08 fe       	lea    -0x2(%r8,%rcx,1),%r8
  402784:	48 89 f1             	mov    %rsi,%rcx
  402787:	48 8b 7c 24 08       	mov    0x8(%rsp),%rdi
  40278c:	f2 ae                	repnz scas %es:(%rdi),%al
  40278e:	48 89 c8             	mov    %rcx,%rax
  402791:	48 f7 d0             	not    %rax
  402794:	49 8d 4c 00 ff       	lea    -0x1(%r8,%rax,1),%rcx
  402799:	48 8d 44 52 fd       	lea    -0x3(%rdx,%rdx,2),%rax
  40279e:	48 8d 84 01 80 00 00 	lea    0x80(%rcx,%rax,1),%rax
  4027a5:	00 
  4027a6:	48 3d 00 20 00 00    	cmp    $0x2000,%rax
  4027ac:	76 72                	jbe    402820 <submitr+0x2a8>
  4027ae:	48 b8 45 72 72 6f 72 	movabs $0x52203a726f727245,%rax
  4027b5:	3a 20 52 
  4027b8:	48 89 03             	mov    %rax,(%rbx)
  4027bb:	48 b8 65 73 75 6c 74 	movabs $0x747320746c757365,%rax
  4027c2:	20 73 74 
  4027c5:	48 89 43 08          	mov    %rax,0x8(%rbx)
  4027c9:	48 b8 72 69 6e 67 20 	movabs $0x6f6f7420676e6972,%rax
  4027d0:	74 6f 6f 
  4027d3:	48 89 43 10          	mov    %rax,0x10(%rbx)
  4027d7:	48 b8 20 6c 61 72 67 	movabs $0x202e656772616c20,%rax
  4027de:	65 2e 20 
  4027e1:	48 89 43 18          	mov    %rax,0x18(%rbx)
  4027e5:	48 b8 49 6e 63 72 65 	movabs $0x6573616572636e49,%rax
  4027ec:	61 73 65 
  4027ef:	48 89 43 20          	mov    %rax,0x20(%rbx)
  4027f3:	48 b8 20 53 55 42 4d 	movabs $0x5254494d42555320,%rax
  4027fa:	49 54 52 
  4027fd:	48 89 43 28          	mov    %rax,0x28(%rbx)
  402801:	48 b8 5f 4d 41 58 42 	movabs $0x46554258414d5f,%rax
  402808:	55 46 00 
  40280b:	48 89 43 30          	mov    %rax,0x30(%rbx)
  40280f:	89 ef                	mov    %ebp,%edi
  402811:	e8 1a e5 ff ff       	callq  400d30 <close@plt>
  402816:	b8 ff ff ff ff       	mov    $0xffffffff,%eax
  40281b:	e9 9e 04 00 00       	jmpq   402cbe <submitr+0x746>
  402820:	48 8d b4 24 40 40 00 	lea    0x4040(%rsp),%rsi
  402827:	00 
  402828:	b9 00 04 00 00       	mov    $0x400,%ecx
  40282d:	b8 00 00 00 00       	mov    $0x0,%eax
  402832:	48 89 f7             	mov    %rsi,%rdi
  402835:	f3 48 ab             	rep stos %rax,%es:(%rdi)
  402838:	4c 89 ef             	mov    %r13,%rdi
  40283b:	e8 2b fc ff ff       	callq  40246b <urlencode>
  402840:	85 c0                	test   %eax,%eax
  402842:	0f 89 8a 00 00 00    	jns    4028d2 <submitr+0x35a>
  402848:	48 b8 45 72 72 6f 72 	movabs $0x52203a726f727245,%rax
  40284f:	3a 20 52 
  402852:	48 89 03             	mov    %rax,(%rbx)
  402855:	48 b8 65 73 75 6c 74 	movabs $0x747320746c757365,%rax
  40285c:	20 73 74 
  40285f:	48 89 43 08          	mov    %rax,0x8(%rbx)
  402863:	48 b8 72 69 6e 67 20 	movabs $0x6e6f6320676e6972,%rax
  40286a:	63 6f 6e 
  40286d:	48 89 43 10          	mov    %rax,0x10(%rbx)
  402871:	48 b8 74 61 69 6e 73 	movabs $0x6e6120736e696174,%rax
  402878:	20 61 6e 
  40287b:	48 89 43 18          	mov    %rax,0x18(%rbx)
  40287f:	48 b8 20 69 6c 6c 65 	movabs $0x6c6167656c6c6920,%rax
  402886:	67 61 6c 
  402889:	48 89 43 20          	mov    %rax,0x20(%rbx)
  40288d:	48 b8 20 6f 72 20 75 	movabs $0x72706e7520726f20,%rax
  402894:	6e 70 72 
  402897:	48 89 43 28          	mov    %rax,0x28(%rbx)
  40289b:	48 b8 69 6e 74 61 62 	movabs $0x20656c6261746e69,%rax
  4028a2:	6c 65 20 
  4028a5:	48 89 43 30          	mov    %rax,0x30(%rbx)
  4028a9:	48 b8 63 68 61 72 61 	movabs $0x6574636172616863,%rax
  4028b0:	63 74 65 
  4028b3:	48 89 43 38          	mov    %rax,0x38(%rbx)
  4028b7:	66 c7 43 40 72 2e    	movw   $0x2e72,0x40(%rbx)
  4028bd:	c6 43 42 00          	movb   $0x0,0x42(%rbx)
  4028c1:	89 ef                	mov    %ebp,%edi
  4028c3:	e8 68 e4 ff ff       	callq  400d30 <close@plt>
  4028c8:	b8 ff ff ff ff       	mov    $0xffffffff,%eax
  4028cd:	e9 ec 03 00 00       	jmpq   402cbe <submitr+0x746>
  4028d2:	4c 8d ac 24 40 20 00 	lea    0x2040(%rsp),%r13
  4028d9:	00 
  4028da:	41 54                	push   %r12
  4028dc:	48 8d 84 24 48 40 00 	lea    0x4048(%rsp),%rax
  4028e3:	00 
  4028e4:	50                   	push   %rax
  4028e5:	4d 89 f9             	mov    %r15,%r9
  4028e8:	4d 89 f0             	mov    %r14,%r8
  4028eb:	b9 48 38 40 00       	mov    $0x403848,%ecx
  4028f0:	ba 00 20 00 00       	mov    $0x2000,%edx
  4028f5:	be 01 00 00 00       	mov    $0x1,%esi
  4028fa:	4c 89 ef             	mov    %r13,%rdi
  4028fd:	b8 00 00 00 00       	mov    $0x0,%eax
  402902:	e8 79 e5 ff ff       	callq  400e80 <__sprintf_chk@plt>
  402907:	b8 00 00 00 00       	mov    $0x0,%eax
  40290c:	48 c7 c1 ff ff ff ff 	mov    $0xffffffffffffffff,%rcx
  402913:	4c 89 ef             	mov    %r13,%rdi
  402916:	f2 ae                	repnz scas %es:(%rdi),%al
  402918:	48 f7 d1             	not    %rcx
  40291b:	48 8d 51 ff          	lea    -0x1(%rcx),%rdx
  40291f:	4c 89 ee             	mov    %r13,%rsi
  402922:	89 ef                	mov    %ebp,%edi
  402924:	e8 b1 f9 ff ff       	callq  4022da <rio_writen>
  402929:	48 83 c4 10          	add    $0x10,%rsp
  40292d:	48 85 c0             	test   %rax,%rax
  402930:	79 6e                	jns    4029a0 <submitr+0x428>
  402932:	48 b8 45 72 72 6f 72 	movabs $0x43203a726f727245,%rax
  402939:	3a 20 43 
  40293c:	48 89 03             	mov    %rax,(%rbx)
  40293f:	48 b8 6c 69 65 6e 74 	movabs $0x6e7520746e65696c,%rax
  402946:	20 75 6e 
  402949:	48 89 43 08          	mov    %rax,0x8(%rbx)
  40294d:	48 b8 61 62 6c 65 20 	movabs $0x206f7420656c6261,%rax
  402954:	74 6f 20 
  402957:	48 89 43 10          	mov    %rax,0x10(%rbx)
  40295b:	48 b8 77 72 69 74 65 	movabs $0x6f74206574697277,%rax
  402962:	20 74 6f 
  402965:	48 89 43 18          	mov    %rax,0x18(%rbx)
  402969:	48 b8 20 74 68 65 20 	movabs $0x7365722065687420,%rax
  402970:	72 65 73 
  402973:	48 89 43 20          	mov    %rax,0x20(%rbx)
  402977:	48 b8 75 6c 74 20 73 	movabs $0x7672657320746c75,%rax
  40297e:	65 72 76 
  402981:	48 89 43 28          	mov    %rax,0x28(%rbx)
  402985:	66 c7 43 30 65 72    	movw   $0x7265,0x30(%rbx)
  40298b:	c6 43 32 00          	movb   $0x0,0x32(%rbx)
  40298f:	89 ef                	mov    %ebp,%edi
  402991:	e8 9a e3 ff ff       	callq  400d30 <close@plt>
  402996:	b8 ff ff ff ff       	mov    $0xffffffff,%eax
  40299b:	e9 1e 03 00 00       	jmpq   402cbe <submitr+0x746>
  4029a0:	89 ee                	mov    %ebp,%esi
  4029a2:	48 8d 7c 24 30       	lea    0x30(%rsp),%rdi
  4029a7:	e8 ee f8 ff ff       	callq  40229a <rio_readinitb>
  4029ac:	ba 00 20 00 00       	mov    $0x2000,%edx
  4029b1:	48 8d b4 24 40 20 00 	lea    0x2040(%rsp),%rsi
  4029b8:	00 
  4029b9:	48 8d 7c 24 30       	lea    0x30(%rsp),%rdi
  4029be:	e8 fe f9 ff ff       	callq  4023c1 <rio_readlineb>
  4029c3:	48 85 c0             	test   %rax,%rax
  4029c6:	7f 7d                	jg     402a45 <submitr+0x4cd>
  4029c8:	48 b8 45 72 72 6f 72 	movabs $0x43203a726f727245,%rax
  4029cf:	3a 20 43 
  4029d2:	48 89 03             	mov    %rax,(%rbx)
  4029d5:	48 b8 6c 69 65 6e 74 	movabs $0x6e7520746e65696c,%rax
  4029dc:	20 75 6e 
  4029df:	48 89 43 08          	mov    %rax,0x8(%rbx)
  4029e3:	48 b8 61 62 6c 65 20 	movabs $0x206f7420656c6261,%rax
  4029ea:	74 6f 20 
  4029ed:	48 89 43 10          	mov    %rax,0x10(%rbx)
  4029f1:	48 b8 72 65 61 64 20 	movabs $0x7269662064616572,%rax
  4029f8:	66 69 72 
  4029fb:	48 89 43 18          	mov    %rax,0x18(%rbx)
  4029ff:	48 b8 73 74 20 68 65 	movabs $0x6564616568207473,%rax
  402a06:	61 64 65 
  402a09:	48 89 43 20          	mov    %rax,0x20(%rbx)
  402a0d:	48 b8 72 20 66 72 6f 	movabs $0x72206d6f72662072,%rax
  402a14:	6d 20 72 
  402a17:	48 89 43 28          	mov    %rax,0x28(%rbx)
  402a1b:	48 b8 65 73 75 6c 74 	movabs $0x657320746c757365,%rax
  402a22:	20 73 65 
  402a25:	48 89 43 30          	mov    %rax,0x30(%rbx)
  402a29:	c7 43 38 72 76 65 72 	movl   $0x72657672,0x38(%rbx)
  402a30:	c6 43 3c 00          	movb   $0x0,0x3c(%rbx)
  402a34:	89 ef                	mov    %ebp,%edi
  402a36:	e8 f5 e2 ff ff       	callq  400d30 <close@plt>
  402a3b:	b8 ff ff ff ff       	mov    $0xffffffff,%eax
  402a40:	e9 79 02 00 00       	jmpq   402cbe <submitr+0x746>
  402a45:	4c 8d 84 24 40 80 00 	lea    0x8040(%rsp),%r8
  402a4c:	00 
  402a4d:	48 8d 4c 24 1c       	lea    0x1c(%rsp),%rcx
  402a52:	48 8d 94 24 40 60 00 	lea    0x6040(%rsp),%rdx
  402a59:	00 
  402a5a:	be bf 38 40 00       	mov    $0x4038bf,%esi
  402a5f:	48 8d bc 24 40 20 00 	lea    0x2040(%rsp),%rdi
  402a66:	00 
  402a67:	b8 00 00 00 00       	mov    $0x0,%eax
  402a6c:	e8 6f e3 ff ff       	callq  400de0 <__isoc99_sscanf@plt>
  402a71:	e9 95 00 00 00       	jmpq   402b0b <submitr+0x593>
  402a76:	ba 00 20 00 00       	mov    $0x2000,%edx
  402a7b:	48 8d b4 24 40 20 00 	lea    0x2040(%rsp),%rsi
  402a82:	00 
  402a83:	48 8d 7c 24 30       	lea    0x30(%rsp),%rdi
  402a88:	e8 34 f9 ff ff       	callq  4023c1 <rio_readlineb>
  402a8d:	48 85 c0             	test   %rax,%rax
  402a90:	7f 79                	jg     402b0b <submitr+0x593>
  402a92:	48 b8 45 72 72 6f 72 	movabs $0x43203a726f727245,%rax
  402a99:	3a 20 43 
  402a9c:	48 89 03             	mov    %rax,(%rbx)
  402a9f:	48 b8 6c 69 65 6e 74 	movabs $0x6e7520746e65696c,%rax
  402aa6:	20 75 6e 
  402aa9:	48 89 43 08          	mov    %rax,0x8(%rbx)
  402aad:	48 b8 61 62 6c 65 20 	movabs $0x206f7420656c6261,%rax
  402ab4:	74 6f 20 
  402ab7:	48 89 43 10          	mov    %rax,0x10(%rbx)
  402abb:	48 b8 72 65 61 64 20 	movabs $0x6165682064616572,%rax
  402ac2:	68 65 61 
  402ac5:	48 89 43 18          	mov    %rax,0x18(%rbx)
  402ac9:	48 b8 64 65 72 73 20 	movabs $0x6f72662073726564,%rax
  402ad0:	66 72 6f 
  402ad3:	48 89 43 20          	mov    %rax,0x20(%rbx)
  402ad7:	48 b8 6d 20 74 68 65 	movabs $0x657220656874206d,%rax
  402ade:	20 72 65 
  402ae1:	48 89 43 28          	mov    %rax,0x28(%rbx)
  402ae5:	48 b8 73 75 6c 74 20 	movabs $0x72657320746c7573,%rax
  402aec:	73 65 72 
  402aef:	48 89 43 30          	mov    %rax,0x30(%rbx)
  402af3:	c7 43 38 76 65 72 00 	movl   $0x726576,0x38(%rbx)
  402afa:	89 ef                	mov    %ebp,%edi
  402afc:	e8 2f e2 ff ff       	callq  400d30 <close@plt>
  402b01:	b8 ff ff ff ff       	mov    $0xffffffff,%eax
  402b06:	e9 b3 01 00 00       	jmpq   402cbe <submitr+0x746>
  402b0b:	0f b6 94 24 40 20 00 	movzbl 0x2040(%rsp),%edx
  402b12:	00 
  402b13:	b8 0d 00 00 00       	mov    $0xd,%eax
  402b18:	29 d0                	sub    %edx,%eax
  402b1a:	75 1b                	jne    402b37 <submitr+0x5bf>
  402b1c:	0f b6 94 24 41 20 00 	movzbl 0x2041(%rsp),%edx
  402b23:	00 
  402b24:	b8 0a 00 00 00       	mov    $0xa,%eax
  402b29:	29 d0                	sub    %edx,%eax
  402b2b:	75 0a                	jne    402b37 <submitr+0x5bf>
  402b2d:	0f b6 84 24 42 20 00 	movzbl 0x2042(%rsp),%eax
  402b34:	00 
  402b35:	f7 d8                	neg    %eax
  402b37:	85 c0                	test   %eax,%eax
  402b39:	0f 85 37 ff ff ff    	jne    402a76 <submitr+0x4fe>
  402b3f:	ba 00 20 00 00       	mov    $0x2000,%edx
  402b44:	48 8d b4 24 40 20 00 	lea    0x2040(%rsp),%rsi
  402b4b:	00 
  402b4c:	48 8d 7c 24 30       	lea    0x30(%rsp),%rdi
  402b51:	e8 6b f8 ff ff       	callq  4023c1 <rio_readlineb>
  402b56:	48 85 c0             	test   %rax,%rax
  402b59:	0f 8f 83 00 00 00    	jg     402be2 <submitr+0x66a>
  402b5f:	48 b8 45 72 72 6f 72 	movabs $0x43203a726f727245,%rax
  402b66:	3a 20 43 
  402b69:	48 89 03             	mov    %rax,(%rbx)
  402b6c:	48 b8 6c 69 65 6e 74 	movabs $0x6e7520746e65696c,%rax
  402b73:	20 75 6e 
  402b76:	48 89 43 08          	mov    %rax,0x8(%rbx)
  402b7a:	48 b8 61 62 6c 65 20 	movabs $0x206f7420656c6261,%rax
  402b81:	74 6f 20 
  402b84:	48 89 43 10          	mov    %rax,0x10(%rbx)
  402b88:	48 b8 72 65 61 64 20 	movabs $0x6174732064616572,%rax
  402b8f:	73 74 61 
  402b92:	48 89 43 18          	mov    %rax,0x18(%rbx)
  402b96:	48 b8 74 75 73 20 6d 	movabs $0x7373656d20737574,%rax
  402b9d:	65 73 73 
  402ba0:	48 89 43 20          	mov    %rax,0x20(%rbx)
  402ba4:	48 b8 61 67 65 20 66 	movabs $0x6d6f726620656761,%rax
  402bab:	72 6f 6d 
  402bae:	48 89 43 28          	mov    %rax,0x28(%rbx)
  402bb2:	48 b8 20 72 65 73 75 	movabs $0x20746c7573657220,%rax
  402bb9:	6c 74 20 
  402bbc:	48 89 43 30          	mov    %rax,0x30(%rbx)
  402bc0:	c7 43 38 73 65 72 76 	movl   $0x76726573,0x38(%rbx)
  402bc7:	66 c7 43 3c 65 72    	movw   $0x7265,0x3c(%rbx)
  402bcd:	c6 43 3e 00          	movb   $0x0,0x3e(%rbx)
  402bd1:	89 ef                	mov    %ebp,%edi
  402bd3:	e8 58 e1 ff ff       	callq  400d30 <close@plt>
  402bd8:	b8 ff ff ff ff       	mov    $0xffffffff,%eax
  402bdd:	e9 dc 00 00 00       	jmpq   402cbe <submitr+0x746>
  402be2:	44 8b 44 24 1c       	mov    0x1c(%rsp),%r8d
  402be7:	41 81 f8 c8 00 00 00 	cmp    $0xc8,%r8d
  402bee:	74 37                	je     402c27 <submitr+0x6af>
  402bf0:	4c 8d 8c 24 40 80 00 	lea    0x8040(%rsp),%r9
  402bf7:	00 
  402bf8:	b9 88 38 40 00       	mov    $0x403888,%ecx
  402bfd:	48 c7 c2 ff ff ff ff 	mov    $0xffffffffffffffff,%rdx
  402c04:	be 01 00 00 00       	mov    $0x1,%esi
  402c09:	48 89 df             	mov    %rbx,%rdi
  402c0c:	b8 00 00 00 00       	mov    $0x0,%eax
  402c11:	e8 6a e2 ff ff       	callq  400e80 <__sprintf_chk@plt>
  402c16:	89 ef                	mov    %ebp,%edi
  402c18:	e8 13 e1 ff ff       	callq  400d30 <close@plt>
  402c1d:	b8 ff ff ff ff       	mov    $0xffffffff,%eax
  402c22:	e9 97 00 00 00       	jmpq   402cbe <submitr+0x746>
  402c27:	48 8d b4 24 40 20 00 	lea    0x2040(%rsp),%rsi
  402c2e:	00 
  402c2f:	48 89 df             	mov    %rbx,%rdi
  402c32:	e8 89 e0 ff ff       	callq  400cc0 <strcpy@plt>
  402c37:	89 ef                	mov    %ebp,%edi
  402c39:	e8 f2 e0 ff ff       	callq  400d30 <close@plt>
  402c3e:	0f b6 03             	movzbl (%rbx),%eax
  402c41:	ba 4f 00 00 00       	mov    $0x4f,%edx
  402c46:	29 c2                	sub    %eax,%edx
  402c48:	75 22                	jne    402c6c <submitr+0x6f4>
  402c4a:	0f b6 4b 01          	movzbl 0x1(%rbx),%ecx
  402c4e:	b8 4b 00 00 00       	mov    $0x4b,%eax
  402c53:	29 c8                	sub    %ecx,%eax
  402c55:	75 17                	jne    402c6e <submitr+0x6f6>
  402c57:	0f b6 4b 02          	movzbl 0x2(%rbx),%ecx
  402c5b:	b8 0a 00 00 00       	mov    $0xa,%eax
  402c60:	29 c8                	sub    %ecx,%eax
  402c62:	75 0a                	jne    402c6e <submitr+0x6f6>
  402c64:	0f b6 43 03          	movzbl 0x3(%rbx),%eax
  402c68:	f7 d8                	neg    %eax
  402c6a:	eb 02                	jmp    402c6e <submitr+0x6f6>
  402c6c:	89 d0                	mov    %edx,%eax
  402c6e:	85 c0                	test   %eax,%eax
  402c70:	74 40                	je     402cb2 <submitr+0x73a>
  402c72:	bf d0 38 40 00       	mov    $0x4038d0,%edi
  402c77:	b9 05 00 00 00       	mov    $0x5,%ecx
  402c7c:	48 89 de             	mov    %rbx,%rsi
  402c7f:	f3 a6                	repz cmpsb %es:(%rdi),%ds:(%rsi)
  402c81:	0f 97 c0             	seta   %al
  402c84:	0f 92 c1             	setb   %cl
  402c87:	29 c8                	sub    %ecx,%eax
  402c89:	0f be c0             	movsbl %al,%eax
  402c8c:	85 c0                	test   %eax,%eax
  402c8e:	74 2e                	je     402cbe <submitr+0x746>
  402c90:	85 d2                	test   %edx,%edx
  402c92:	75 13                	jne    402ca7 <submitr+0x72f>
  402c94:	0f b6 43 01          	movzbl 0x1(%rbx),%eax
  402c98:	ba 4b 00 00 00       	mov    $0x4b,%edx
  402c9d:	29 c2                	sub    %eax,%edx
  402c9f:	75 06                	jne    402ca7 <submitr+0x72f>
  402ca1:	0f b6 53 02          	movzbl 0x2(%rbx),%edx
  402ca5:	f7 da                	neg    %edx
  402ca7:	85 d2                	test   %edx,%edx
  402ca9:	75 0e                	jne    402cb9 <submitr+0x741>
  402cab:	b8 00 00 00 00       	mov    $0x0,%eax
  402cb0:	eb 0c                	jmp    402cbe <submitr+0x746>
  402cb2:	b8 00 00 00 00       	mov    $0x0,%eax
  402cb7:	eb 05                	jmp    402cbe <submitr+0x746>
  402cb9:	b8 ff ff ff ff       	mov    $0xffffffff,%eax
  402cbe:	48 8b 9c 24 48 a0 00 	mov    0xa048(%rsp),%rbx
  402cc5:	00 
  402cc6:	64 48 33 1c 25 28 00 	xor    %fs:0x28,%rbx
  402ccd:	00 00 
  402ccf:	74 05                	je     402cd6 <submitr+0x75e>
  402cd1:	e8 1a e0 ff ff       	callq  400cf0 <__stack_chk_fail@plt>
  402cd6:	48 81 c4 58 a0 00 00 	add    $0xa058,%rsp
  402cdd:	5b                   	pop    %rbx
  402cde:	5d                   	pop    %rbp
  402cdf:	41 5c                	pop    %r12
  402ce1:	41 5d                	pop    %r13
  402ce3:	41 5e                	pop    %r14
  402ce5:	41 5f                	pop    %r15
  402ce7:	c3                   	retq   

0000000000402ce8 <init_timeout>:
  402ce8:	85 ff                	test   %edi,%edi
  402cea:	74 23                	je     402d0f <init_timeout+0x27>
  402cec:	53                   	push   %rbx
  402ced:	89 fb                	mov    %edi,%ebx
  402cef:	85 ff                	test   %edi,%edi
  402cf1:	79 05                	jns    402cf8 <init_timeout+0x10>
  402cf3:	bb 00 00 00 00       	mov    $0x0,%ebx
  402cf8:	be ac 22 40 00       	mov    $0x4022ac,%esi
  402cfd:	bf 0e 00 00 00       	mov    $0xe,%edi
  402d02:	e8 59 e0 ff ff       	callq  400d60 <signal@plt>
  402d07:	89 df                	mov    %ebx,%edi
  402d09:	e8 12 e0 ff ff       	callq  400d20 <alarm@plt>
  402d0e:	5b                   	pop    %rbx
  402d0f:	f3 c3                	repz retq 

0000000000402d11 <init_driver>:
  402d11:	55                   	push   %rbp
  402d12:	53                   	push   %rbx
  402d13:	48 83 ec 28          	sub    $0x28,%rsp
  402d17:	48 89 fd             	mov    %rdi,%rbp
  402d1a:	64 48 8b 04 25 28 00 	mov    %fs:0x28,%rax
  402d21:	00 00 
  402d23:	48 89 44 24 18       	mov    %rax,0x18(%rsp)
  402d28:	31 c0                	xor    %eax,%eax
  402d2a:	be 01 00 00 00       	mov    $0x1,%esi
  402d2f:	bf 0d 00 00 00       	mov    $0xd,%edi
  402d34:	e8 27 e0 ff ff       	callq  400d60 <signal@plt>
  402d39:	be 01 00 00 00       	mov    $0x1,%esi
  402d3e:	bf 1d 00 00 00       	mov    $0x1d,%edi
  402d43:	e8 18 e0 ff ff       	callq  400d60 <signal@plt>
  402d48:	be 01 00 00 00       	mov    $0x1,%esi
  402d4d:	bf 1d 00 00 00       	mov    $0x1d,%edi
  402d52:	e8 09 e0 ff ff       	callq  400d60 <signal@plt>
  402d57:	ba 00 00 00 00       	mov    $0x0,%edx
  402d5c:	be 01 00 00 00       	mov    $0x1,%esi
  402d61:	bf 02 00 00 00       	mov    $0x2,%edi
  402d66:	e8 25 e1 ff ff       	callq  400e90 <socket@plt>
  402d6b:	85 c0                	test   %eax,%eax
  402d6d:	79 4f                	jns    402dbe <init_driver+0xad>
  402d6f:	48 b8 45 72 72 6f 72 	movabs $0x43203a726f727245,%rax
  402d76:	3a 20 43 
  402d79:	48 89 45 00          	mov    %rax,0x0(%rbp)
  402d7d:	48 b8 6c 69 65 6e 74 	movabs $0x6e7520746e65696c,%rax
  402d84:	20 75 6e 
  402d87:	48 89 45 08          	mov    %rax,0x8(%rbp)
  402d8b:	48 b8 61 62 6c 65 20 	movabs $0x206f7420656c6261,%rax
  402d92:	74 6f 20 
  402d95:	48 89 45 10          	mov    %rax,0x10(%rbp)
  402d99:	48 b8 63 72 65 61 74 	movabs $0x7320657461657263,%rax
  402da0:	65 20 73 
  402da3:	48 89 45 18          	mov    %rax,0x18(%rbp)
  402da7:	c7 45 20 6f 63 6b 65 	movl   $0x656b636f,0x20(%rbp)
  402dae:	66 c7 45 24 74 00    	movw   $0x74,0x24(%rbp)
  402db4:	b8 ff ff ff ff       	mov    $0xffffffff,%eax
  402db9:	e9 2a 01 00 00       	jmpq   402ee8 <init_driver+0x1d7>
  402dbe:	89 c3                	mov    %eax,%ebx
  402dc0:	bf ed 33 40 00       	mov    $0x4033ed,%edi
  402dc5:	e8 a6 df ff ff       	callq  400d70 <gethostbyname@plt>
  402dca:	48 85 c0             	test   %rax,%rax
  402dcd:	75 68                	jne    402e37 <init_driver+0x126>
  402dcf:	48 b8 45 72 72 6f 72 	movabs $0x44203a726f727245,%rax
  402dd6:	3a 20 44 
  402dd9:	48 89 45 00          	mov    %rax,0x0(%rbp)
  402ddd:	48 b8 4e 53 20 69 73 	movabs $0x6e7520736920534e,%rax
  402de4:	20 75 6e 
  402de7:	48 89 45 08          	mov    %rax,0x8(%rbp)
  402deb:	48 b8 61 62 6c 65 20 	movabs $0x206f7420656c6261,%rax
  402df2:	74 6f 20 
  402df5:	48 89 45 10          	mov    %rax,0x10(%rbp)
  402df9:	48 b8 72 65 73 6f 6c 	movabs $0x2065766c6f736572,%rax
  402e00:	76 65 20 
  402e03:	48 89 45 18          	mov    %rax,0x18(%rbp)
  402e07:	48 b8 73 65 72 76 65 	movabs $0x6120726576726573,%rax
  402e0e:	72 20 61 
  402e11:	48 89 45 20          	mov    %rax,0x20(%rbp)
  402e15:	c7 45 28 64 64 72 65 	movl   $0x65726464,0x28(%rbp)
  402e1c:	66 c7 45 2c 73 73    	movw   $0x7373,0x2c(%rbp)
  402e22:	c6 45 2e 00          	movb   $0x0,0x2e(%rbp)
  402e26:	89 df                	mov    %ebx,%edi
  402e28:	e8 03 df ff ff       	callq  400d30 <close@plt>
  402e2d:	b8 ff ff ff ff       	mov    $0xffffffff,%eax
  402e32:	e9 b1 00 00 00       	jmpq   402ee8 <init_driver+0x1d7>
  402e37:	48 c7 04 24 00 00 00 	movq   $0x0,(%rsp)
  402e3e:	00 
  402e3f:	48 c7 44 24 08 00 00 	movq   $0x0,0x8(%rsp)
  402e46:	00 00 
  402e48:	66 c7 04 24 02 00    	movw   $0x2,(%rsp)
  402e4e:	48 63 50 14          	movslq 0x14(%rax),%rdx
  402e52:	48 8b 40 18          	mov    0x18(%rax),%rax
  402e56:	48 8b 30             	mov    (%rax),%rsi
  402e59:	48 8d 7c 24 04       	lea    0x4(%rsp),%rdi
  402e5e:	b9 0c 00 00 00       	mov    $0xc,%ecx
  402e63:	e8 18 df ff ff       	callq  400d80 <__memmove_chk@plt>
  402e68:	66 c7 44 24 02 3c 9a 	movw   $0x9a3c,0x2(%rsp)
  402e6f:	ba 10 00 00 00       	mov    $0x10,%edx
  402e74:	48 89 e6             	mov    %rsp,%rsi
  402e77:	89 df                	mov    %ebx,%edi
  402e79:	e8 e2 df ff ff       	callq  400e60 <connect@plt>
  402e7e:	85 c0                	test   %eax,%eax
  402e80:	79 50                	jns    402ed2 <init_driver+0x1c1>
  402e82:	48 b8 45 72 72 6f 72 	movabs $0x55203a726f727245,%rax
  402e89:	3a 20 55 
  402e8c:	48 89 45 00          	mov    %rax,0x0(%rbp)
  402e90:	48 b8 6e 61 62 6c 65 	movabs $0x6f7420656c62616e,%rax
  402e97:	20 74 6f 
  402e9a:	48 89 45 08          	mov    %rax,0x8(%rbp)
  402e9e:	48 b8 20 63 6f 6e 6e 	movabs $0x7463656e6e6f6320,%rax
  402ea5:	65 63 74 
  402ea8:	48 89 45 10          	mov    %rax,0x10(%rbp)
  402eac:	48 b8 20 74 6f 20 73 	movabs $0x76726573206f7420,%rax
  402eb3:	65 72 76 
  402eb6:	48 89 45 18          	mov    %rax,0x18(%rbp)
  402eba:	66 c7 45 20 65 72    	movw   $0x7265,0x20(%rbp)
  402ec0:	c6 45 22 00          	movb   $0x0,0x22(%rbp)
  402ec4:	89 df                	mov    %ebx,%edi
  402ec6:	e8 65 de ff ff       	callq  400d30 <close@plt>
  402ecb:	b8 ff ff ff ff       	mov    $0xffffffff,%eax
  402ed0:	eb 16                	jmp    402ee8 <init_driver+0x1d7>
  402ed2:	89 df                	mov    %ebx,%edi
  402ed4:	e8 57 de ff ff       	callq  400d30 <close@plt>
  402ed9:	66 c7 45 00 4f 4b    	movw   $0x4b4f,0x0(%rbp)
  402edf:	c6 45 02 00          	movb   $0x0,0x2(%rbp)
  402ee3:	b8 00 00 00 00       	mov    $0x0,%eax
  402ee8:	48 8b 4c 24 18       	mov    0x18(%rsp),%rcx
  402eed:	64 48 33 0c 25 28 00 	xor    %fs:0x28,%rcx
  402ef4:	00 00 
  402ef6:	74 05                	je     402efd <init_driver+0x1ec>
  402ef8:	e8 f3 dd ff ff       	callq  400cf0 <__stack_chk_fail@plt>
  402efd:	48 83 c4 28          	add    $0x28,%rsp
  402f01:	5b                   	pop    %rbx
  402f02:	5d                   	pop    %rbp
  402f03:	c3                   	retq   

0000000000402f04 <driver_post>:
  402f04:	53                   	push   %rbx
  402f05:	4c 89 cb             	mov    %r9,%rbx
  402f08:	45 85 c0             	test   %r8d,%r8d
  402f0b:	74 27                	je     402f34 <driver_post+0x30>
  402f0d:	48 89 ca             	mov    %rcx,%rdx
  402f10:	be d5 38 40 00       	mov    $0x4038d5,%esi
  402f15:	bf 01 00 00 00       	mov    $0x1,%edi
  402f1a:	b8 00 00 00 00       	mov    $0x0,%eax
  402f1f:	e8 dc de ff ff       	callq  400e00 <__printf_chk@plt>
  402f24:	66 c7 03 4f 4b       	movw   $0x4b4f,(%rbx)
  402f29:	c6 43 02 00          	movb   $0x0,0x2(%rbx)
  402f2d:	b8 00 00 00 00       	mov    $0x0,%eax
  402f32:	eb 3f                	jmp    402f73 <driver_post+0x6f>
  402f34:	48 85 ff             	test   %rdi,%rdi
  402f37:	74 2c                	je     402f65 <driver_post+0x61>
  402f39:	80 3f 00             	cmpb   $0x0,(%rdi)
  402f3c:	74 27                	je     402f65 <driver_post+0x61>
  402f3e:	48 83 ec 08          	sub    $0x8,%rsp
  402f42:	41 51                	push   %r9
  402f44:	49 89 c9             	mov    %rcx,%r9
  402f47:	49 89 d0             	mov    %rdx,%r8
  402f4a:	48 89 f9             	mov    %rdi,%rcx
  402f4d:	48 89 f2             	mov    %rsi,%rdx
  402f50:	be 9a 3c 00 00       	mov    $0x3c9a,%esi
  402f55:	bf ed 33 40 00       	mov    $0x4033ed,%edi
  402f5a:	e8 19 f6 ff ff       	callq  402578 <submitr>
  402f5f:	48 83 c4 10          	add    $0x10,%rsp
  402f63:	eb 0e                	jmp    402f73 <driver_post+0x6f>
  402f65:	66 c7 03 4f 4b       	movw   $0x4b4f,(%rbx)
  402f6a:	c6 43 02 00          	movb   $0x0,0x2(%rbx)
  402f6e:	b8 00 00 00 00       	mov    $0x0,%eax
  402f73:	5b                   	pop    %rbx
  402f74:	c3                   	retq   

0000000000402f75 <check>:
  402f75:	89 f8                	mov    %edi,%eax
  402f77:	c1 e8 1c             	shr    $0x1c,%eax
  402f7a:	85 c0                	test   %eax,%eax
  402f7c:	74 1d                	je     402f9b <check+0x26>
  402f7e:	b9 00 00 00 00       	mov    $0x0,%ecx
  402f83:	eb 0b                	jmp    402f90 <check+0x1b>
  402f85:	89 f8                	mov    %edi,%eax
  402f87:	d3 e8                	shr    %cl,%eax
  402f89:	3c 0a                	cmp    $0xa,%al
  402f8b:	74 14                	je     402fa1 <check+0x2c>
  402f8d:	83 c1 08             	add    $0x8,%ecx
  402f90:	83 f9 1f             	cmp    $0x1f,%ecx
  402f93:	7e f0                	jle    402f85 <check+0x10>
  402f95:	b8 01 00 00 00       	mov    $0x1,%eax
  402f9a:	c3                   	retq   
  402f9b:	b8 00 00 00 00       	mov    $0x0,%eax
  402fa0:	c3                   	retq   
  402fa1:	b8 00 00 00 00       	mov    $0x0,%eax
  402fa6:	c3                   	retq   

0000000000402fa7 <gencookie>:
  402fa7:	53                   	push   %rbx
  402fa8:	83 c7 01             	add    $0x1,%edi
  402fab:	e8 f0 dc ff ff       	callq  400ca0 <srandom@plt>
  402fb0:	e8 0b de ff ff       	callq  400dc0 <random@plt>
  402fb5:	89 c3                	mov    %eax,%ebx
  402fb7:	89 c7                	mov    %eax,%edi
  402fb9:	e8 b7 ff ff ff       	callq  402f75 <check>
  402fbe:	85 c0                	test   %eax,%eax
  402fc0:	74 ee                	je     402fb0 <gencookie+0x9>
  402fc2:	89 d8                	mov    %ebx,%eax
  402fc4:	5b                   	pop    %rbx
  402fc5:	c3                   	retq   
  402fc6:	66 2e 0f 1f 84 00 00 	nopw   %cs:0x0(%rax,%rax,1)
  402fcd:	00 00 00 

0000000000402fd0 <__libc_csu_init>:
  402fd0:	41 57                	push   %r15
  402fd2:	41 56                	push   %r14
  402fd4:	41 89 ff             	mov    %edi,%r15d
  402fd7:	41 55                	push   %r13
  402fd9:	41 54                	push   %r12
  402fdb:	4c 8d 25 2e 1e 20 00 	lea    0x201e2e(%rip),%r12        # 604e10 <__frame_dummy_init_array_entry>
  402fe2:	55                   	push   %rbp
  402fe3:	48 8d 2d 2e 1e 20 00 	lea    0x201e2e(%rip),%rbp        # 604e18 <__init_array_end>
  402fea:	53                   	push   %rbx
  402feb:	49 89 f6             	mov    %rsi,%r14
  402fee:	49 89 d5             	mov    %rdx,%r13
  402ff1:	4c 29 e5             	sub    %r12,%rbp
  402ff4:	48 83 ec 08          	sub    $0x8,%rsp
  402ff8:	48 c1 fd 03          	sar    $0x3,%rbp
  402ffc:	e8 47 dc ff ff       	callq  400c48 <_init>
  403001:	48 85 ed             	test   %rbp,%rbp
  403004:	74 20                	je     403026 <__libc_csu_init+0x56>
  403006:	31 db                	xor    %ebx,%ebx
  403008:	0f 1f 84 00 00 00 00 	nopl   0x0(%rax,%rax,1)
  40300f:	00 
  403010:	4c 89 ea             	mov    %r13,%rdx
  403013:	4c 89 f6             	mov    %r14,%rsi
  403016:	44 89 ff             	mov    %r15d,%edi
  403019:	41 ff 14 dc          	callq  *(%r12,%rbx,8)
  40301d:	48 83 c3 01          	add    $0x1,%rbx
  403021:	48 39 eb             	cmp    %rbp,%rbx
  403024:	75 ea                	jne    403010 <__libc_csu_init+0x40>
  403026:	48 83 c4 08          	add    $0x8,%rsp
  40302a:	5b                   	pop    %rbx
  40302b:	5d                   	pop    %rbp
  40302c:	41 5c                	pop    %r12
  40302e:	41 5d                	pop    %r13
  403030:	41 5e                	pop    %r14
  403032:	41 5f                	pop    %r15
  403034:	c3                   	retq   
  403035:	90                   	nop
  403036:	66 2e 0f 1f 84 00 00 	nopw   %cs:0x0(%rax,%rax,1)
  40303d:	00 00 00 

0000000000403040 <__libc_csu_fini>:
  403040:	f3 c3                	repz retq 

Disassembly of section .fini:

0000000000403044 <_fini>:
  403044:	48 83 ec 08          	sub    $0x8,%rsp
  403048:	48 83 c4 08          	add    $0x8,%rsp
  40304c:	c3                   	retq   
